         U BAL_MMCTask
         U BAL_MainTaskEntry
         U BTCPU_SendEvent2
         U BTSco_AudCallReset
         U BTSco_AudCallStarted
         U BTSco_Setup
         U BTSco_Start
         U BTSco_Stop
         U BThost_Initialise
         U BThost_Sched
         U BTq_Commit_EDR
         U COS_Free
         U COS_Malloc
         U COS_SendEvent
         U CSW_COS_MALLOC
         U CSW_Free
         U HCI_FreeReceiveBuffer
         U HCI_GetReceiveBuffer
         U MCI_AudioSetEQ
         U MCI_AudioStop
         U MCI_PlayBTStream
         U MCI_PlayInternalAudio
         U MCI_PlaySideTone
         U MCI_StartBTSCO
         U MCI_StopInternalAudio
         U ML_LocalLanguage2UnicodeBigEnding
         U PM_GetBatteryInfo
         U PM_SetBattery
         U RDA_Debug_PrintEX
         U RDA_bt_Power_On_Reset
         U RdaBtTest_send_manual_tx_cmd
         U TRAhcit_COMBINED_Shutdown
         U USLCchac_Wakeup2
         U _Z10init_stackv
         w _Z16cmd_handler_0x01PhiPiPFvPciE
         w _Z16cmd_handler_0x02PhiPiPFvPciE
         w _Z16cmd_handler_0x03PhiPiPFvPciE
         w _Z16cmd_handler_0x04PhiPiPFvPciE
         w _Z16cmd_handler_0x05PhiPiPFvPciE
         w _Z16cmd_handler_0x06PhiPiPFvPciE
         w _Z16cmd_handler_0x07PhiPiPFvPciE
         w _Z16cmd_handler_0x08PhiPiPFvPciE
         w _Z16cmd_handler_0x09PhiPiPFvPciE
         w _Z16cmd_handler_0x0APhiPiPFvPciE
         w _Z16cmd_handler_0x0BPhiPiPFvPciE
         w _Z16cmd_handler_0x0CPhiPiPFvPciE
         w _Z16cmd_handler_0x0DPhiPiPFvPciE
         w _Z16cmd_handler_0x0EPhiPiPFvPciE
         w _Z16cmd_handler_0x0FPhiPiPFvPciE
         w _Z16cmd_handler_0x11PhiPiPFvPciE
         w _Z16cmd_handler_0x12PhiPiPFvPciE
         w _Z16cmd_handler_0x13PhiPiPFvPciE
         w _Z16cmd_handler_0x14PhiPiPFvPciE
         w _Z16cmd_handler_0x15PhiPiPFvPciE
         w _Z16cmd_handler_0x16PhiPiPFvPciE
         w _Z16cmd_handler_0x17PhiPiPFvPciE
         w _Z16cmd_handler_0x18PhiPiPFvPciE
         w _Z16cmd_handler_0x19PhiPiPFvPciE
         w _Z16cmd_handler_0x1APhiPiPFvPciE
         w _Z16cmd_handler_0x20PhiPiPFvPciE
         w _Z16cmd_handler_0x21PhiPiPFvPciE
         w _Z16cmd_handler_0x22PhiPiPFvPciE
         w _Z16cmd_handler_0x23PhiPiPFvPciE
         w _Z16cmd_handler_0x24PhiPiPFvPciE
         w _Z16cmd_handler_0x25PhiPiPFvPciE
         w _Z16cmd_handler_0x26PhiPiPFvPciE
         w _Z16cmd_handler_0x27PhiPiPFvPciE
         w _Z16cmd_handler_0x28PhiPiPFvPciE
         w _Z16cmd_handler_0x29PhiPiPFvPciE
         w _Z16cmd_handler_0x2APhiPiPFvPciE
         w _Z16cmd_handler_0x2BPhiPiPFvPciE
         w _Z16cmd_handler_0x2CPhiPiPFvPciE
         w _Z16cmd_handler_0x2DPhiPiPFvPciE
         w _Z16cmd_handler_0x2EPhiPiPFvPciE
         w _Z16cmd_handler_0x2FPhiPiPFvPciE
         w _Z16cmd_handler_0x30PhiPiPFvPciE
         w _Z16cmd_handler_0x31PhiPiPFvPciE
         w _Z16cmd_handler_0x32PhiPiPFvPciE
         w _Z16cmd_handler_0x33PhiPiPFvPciE
         w _Z16cmd_handler_0x34PhiPiPFvPciE
         w _Z16cmd_handler_0x35PhiPiPFvPciE
         w _Z16cmd_handler_0x36PhiPiPFvPciE
         w _Z16cmd_handler_0x37PhiPiPFvPciE
         w _Z16cmd_handler_0x38PhiPiPFvPciE
         w _Z16cmd_handler_0x39PhiPiPFvPciE
         w _Z16cmd_handler_0x3APhiPiPFvPciE
         w _Z16cmd_handler_0x3BPhiPiPFvPciE
         w _Z16cmd_handler_0x3CPhiPiPFvPciE
         w _Z16cmd_handler_0x3DPhiPiPFvPciE
         w _Z16cmd_handler_0x3EPhiPiPFvPciE
         w _Z16cmd_handler_0x3FPhiPiPFvPciE
         w _Z16cmd_handler_0x40PhiPiPFvPciE
         w _Z16cmd_handler_0x41PhiPiPFvPciE
         w _Z16cmd_handler_0x42PhiPiPFvPciE
         w _Z16cmd_handler_0x43PhiPiPFvPciE
         w _Z16cmd_handler_0x44PhiPiPFvPciE
         w _Z16cmd_handler_0x45PhiPiPFvPciE
         w _Z16cmd_handler_0x46PhiPiPFvPciE
         w _Z16cmd_handler_0x47PhiPiPFvPciE
         w _Z16cmd_handler_0x48PhiPiPFvPciE
         w _Z16cmd_handler_0x49PhiPiPFvPciE
         w _Z16cmd_handler_0x4APhiPiPFvPciE
         w _Z16cmd_handler_0x4BPhiPiPFvPciE
         w _Z16cmd_handler_0x4CPhiPiPFvPciE
         w _Z16cmd_handler_0x4DPhiPiPFvPciE
         w _Z16cmd_handler_0x4EPhiPiPFvPciE
         w _Z16cmd_handler_0x4FPhiPiPFvPciE
         w _Z16cmd_handler_0x50PhiPiPFvPciE
         w _Z16cmd_handler_0x51PhiPiPFvPciE
         w _Z16cmd_handler_0x52PhiPiPFvPciE
         w _Z16cmd_handler_0x53PhiPiPFvPciE
         w _Z16cmd_handler_0x54PhiPiPFvPciE
         w _Z16cmd_handler_0x55PhiPiPFvPciE
         w _Z16cmd_handler_0x56PhiPiPFvPciE
         w _Z16cmd_handler_0x57PhiPiPFvPciE
         w _Z16cmd_handler_0x58PhiPiPFvPciE
         w _Z16cmd_handler_0x59PhiPiPFvPciE
         w _Z16cmd_handler_0x5APhiPiPFvPciE
         w _Z16cmd_handler_0x5BPhiPiPFvPciE
         w _Z16cmd_handler_0x5CPhiPiPFvPciE
         w _Z16cmd_handler_0x5DPhiPiPFvPciE
         w _Z16cmd_handler_0x5EPhiPiPFvPciE
         w _Z16cmd_handler_0x5FPhiPiPFvPciE
         w _Z16cmd_handler_0x60PhiPiPFvPciE
         w _Z16cmd_handler_0x61PhiPiPFvPciE
         w _Z16cmd_handler_0x62PhiPiPFvPciE
         w _Z16cmd_handler_0x63PhiPiPFvPciE
         w _Z16cmd_handler_0x64PhiPiPFvPciE
         w _Z16cmd_handler_0x65PhiPiPFvPciE
         w _Z16cmd_handler_0x66PhiPiPFvPciE
         w _Z16cmd_handler_0x67PhiPiPFvPciE
         w _Z16cmd_handler_0x68PhiPiPFvPciE
         w _Z16cmd_handler_0x69PhiPiPFvPciE
         w _Z16cmd_handler_0x6APhiPiPFvPciE
         w _Z16cmd_handler_0x6BPhiPiPFvPciE
         w _Z16cmd_handler_0x6CPhiPiPFvPciE
         w _Z16cmd_handler_0x6DPhiPiPFvPciE
         w _Z16cmd_handler_0x6EPhiPiPFvPciE
         w _Z16cmd_handler_0x6FPhiPiPFvPciE
         w _Z16cmd_handler_0x70PhiPiPFvPciE
         w _Z16cmd_handler_0x71PhiPiPFvPciE
         w _Z16cmd_handler_0x72PhiPiPFvPciE
         w _Z16cmd_handler_0x73PhiPiPFvPciE
         w _Z16cmd_handler_0x74PhiPiPFvPciE
         w _Z16cmd_handler_0x75PhiPiPFvPciE
         w _Z16cmd_handler_0x76PhiPiPFvPciE
         w _Z16cmd_handler_0x77PhiPiPFvPciE
         w _Z16cmd_handler_0x78PhiPiPFvPciE
         w _Z16cmd_handler_0x79PhiPiPFvPciE
         w _Z16cmd_handler_0x7APhiPiPFvPciE
         w _Z16cmd_handler_0x7BPhiPiPFvPciE
         w _Z16cmd_handler_0x7CPhiPiPFvPciE
         w _Z16cmd_handler_0x7DPhiPiPFvPciE
         w _Z16cmd_handler_0x7EPhiPiPFvPciE
         w _Z16cmd_handler_0x7FPhiPiPFvPciE
         w _Z16cmd_handler_0x80PhiPiPFvPciE
         w _Z16cmd_handler_0x81PhiPiPFvPciE
         w _Z16cmd_handler_0x82PhiPiPFvPciE
         w _Z16cmd_handler_0x83PhiPiPFvPciE
         w _Z16cmd_handler_0x84PhiPiPFvPciE
         w _Z16cmd_handler_0x85PhiPiPFvPciE
         w _Z16cmd_handler_0x86PhiPiPFvPciE
         w _Z16cmd_handler_0x87PhiPiPFvPciE
         w _Z16cmd_handler_0x88PhiPiPFvPciE
         w _Z16cmd_handler_0x89PhiPiPFvPciE
         w _Z16cmd_handler_0x8APhiPiPFvPciE
         w _Z16cmd_handler_0x8BPhiPiPFvPciE
         w _Z16cmd_handler_0x8CPhiPiPFvPciE
         w _Z16cmd_handler_0x8DPhiPiPFvPciE
         w _Z16cmd_handler_0x8EPhiPiPFvPciE
         w _Z16cmd_handler_0x8FPhiPiPFvPciE
         w _Z16cmd_handler_0x90PhiPiPFvPciE
         w _Z16cmd_handler_0x91PhiPiPFvPciE
         w _Z16cmd_handler_0x92PhiPiPFvPciE
         w _Z16cmd_handler_0x93PhiPiPFvPciE
         w _Z16cmd_handler_0x94PhiPiPFvPciE
         w _Z16cmd_handler_0x95PhiPiPFvPciE
         w _Z16cmd_handler_0x96PhiPiPFvPciE
         w _Z16cmd_handler_0x97PhiPiPFvPciE
         w _Z16cmd_handler_0x98PhiPiPFvPciE
         w _Z16cmd_handler_0x99PhiPiPFvPciE
         w _Z16cmd_handler_0x9APhiPiPFvPciE
         w _Z16cmd_handler_0x9BPhiPiPFvPciE
         w _Z16cmd_handler_0x9CPhiPiPFvPciE
         w _Z16cmd_handler_0x9DPhiPiPFvPciE
         w _Z16cmd_handler_0x9EPhiPiPFvPciE
         w _Z16cmd_handler_0x9FPhiPiPFvPciE
         w _Z16cmd_handler_0xA0PhiPiPFvPciE
         w _Z16cmd_handler_0xA1PhiPiPFvPciE
         w _Z16cmd_handler_0xA2PhiPiPFvPciE
         w _Z16cmd_handler_0xA3PhiPiPFvPciE
         w _Z16cmd_handler_0xA4PhiPiPFvPciE
         w _Z16cmd_handler_0xA5PhiPiPFvPciE
         w _Z16cmd_handler_0xA6PhiPiPFvPciE
         w _Z16cmd_handler_0xA7PhiPiPFvPciE
         w _Z16cmd_handler_0xA8PhiPiPFvPciE
         w _Z16cmd_handler_0xA9PhiPiPFvPciE
         w _Z16cmd_handler_0xAAPhiPiPFvPciE
         w _Z16cmd_handler_0xABPhiPiPFvPciE
         w _Z16cmd_handler_0xACPhiPiPFvPciE
         w _Z16cmd_handler_0xADPhiPiPFvPciE
         w _Z16cmd_handler_0xAEPhiPiPFvPciE
         w _Z16cmd_handler_0xAFPhiPiPFvPciE
         w _Z16cmd_handler_0xB0PhiPiPFvPciE
         w _Z16cmd_handler_0xB1PhiPiPFvPciE
         w _Z16cmd_handler_0xB2PhiPiPFvPciE
         w _Z16cmd_handler_0xB3PhiPiPFvPciE
         w _Z16cmd_handler_0xB4PhiPiPFvPciE
         w _Z16cmd_handler_0xB5PhiPiPFvPciE
         w _Z16cmd_handler_0xB6PhiPiPFvPciE
         w _Z16cmd_handler_0xB7PhiPiPFvPciE
         w _Z16cmd_handler_0xB8PhiPiPFvPciE
         w _Z16cmd_handler_0xB9PhiPiPFvPciE
         w _Z16cmd_handler_0xBAPhiPiPFvPciE
         w _Z16cmd_handler_0xBBPhiPiPFvPciE
         w _Z16cmd_handler_0xBCPhiPiPFvPciE
         w _Z16cmd_handler_0xBDPhiPiPFvPciE
         w _Z16cmd_handler_0xBEPhiPiPFvPciE
         w _Z16cmd_handler_0xBFPhiPiPFvPciE
         w _Z16cmd_handler_0xC0PhiPiPFvPciE
         w _Z16cmd_handler_0xC1PhiPiPFvPciE
         w _Z16cmd_handler_0xC2PhiPiPFvPciE
         w _Z16cmd_handler_0xC3PhiPiPFvPciE
         w _Z16cmd_handler_0xC4PhiPiPFvPciE
         w _Z16cmd_handler_0xC5PhiPiPFvPciE
         w _Z16cmd_handler_0xC6PhiPiPFvPciE
         w _Z16cmd_handler_0xC7PhiPiPFvPciE
         w _Z16cmd_handler_0xC8PhiPiPFvPciE
         w _Z16cmd_handler_0xC9PhiPiPFvPciE
         w _Z16cmd_handler_0xCAPhiPiPFvPciE
         w _Z16cmd_handler_0xCBPhiPiPFvPciE
         w _Z16cmd_handler_0xCCPhiPiPFvPciE
         w _Z16cmd_handler_0xCDPhiPiPFvPciE
         w _Z16cmd_handler_0xCEPhiPiPFvPciE
         w _Z16cmd_handler_0xCFPhiPiPFvPciE
         w _Z16cmd_handler_0xD0PhiPiPFvPciE
         w _Z16cmd_handler_0xD1PhiPiPFvPciE
         w _Z16cmd_handler_0xD2PhiPiPFvPciE
         w _Z16cmd_handler_0xD3PhiPiPFvPciE
         w _Z16cmd_handler_0xD4PhiPiPFvPciE
         w _Z16cmd_handler_0xD5PhiPiPFvPciE
         w _Z16cmd_handler_0xD6PhiPiPFvPciE
         w _Z16cmd_handler_0xD7PhiPiPFvPciE
         w _Z16cmd_handler_0xD8PhiPiPFvPciE
         w _Z16cmd_handler_0xD9PhiPiPFvPciE
         w _Z16cmd_handler_0xDAPhiPiPFvPciE
         w _Z16cmd_handler_0xDBPhiPiPFvPciE
         w _Z16cmd_handler_0xDCPhiPiPFvPciE
         w _Z16cmd_handler_0xDDPhiPiPFvPciE
         w _Z16cmd_handler_0xDEPhiPiPFvPciE
         w _Z16cmd_handler_0xDFPhiPiPFvPciE
         w _Z16cmd_handler_0xE0PhiPiPFvPciE
         w _Z16cmd_handler_0xE1PhiPiPFvPciE
         w _Z16cmd_handler_0xE2PhiPiPFvPciE
         w _Z16cmd_handler_0xE3PhiPiPFvPciE
         w _Z16cmd_handler_0xE4PhiPiPFvPciE
         w _Z16cmd_handler_0xE5PhiPiPFvPciE
         w _Z16cmd_handler_0xE6PhiPiPFvPciE
         w _Z16cmd_handler_0xE7PhiPiPFvPciE
         w _Z16cmd_handler_0xE8PhiPiPFvPciE
         w _Z16cmd_handler_0xE9PhiPiPFvPciE
         w _Z16cmd_handler_0xEAPhiPiPFvPciE
         w _Z16cmd_handler_0xEBPhiPiPFvPciE
         w _Z16cmd_handler_0xECPhiPiPFvPciE
         w _Z16cmd_handler_0xEDPhiPiPFvPciE
         w _Z16cmd_handler_0xEEPhiPiPFvPciE
         w _Z16cmd_handler_0xEFPhiPiPFvPciE
         w _Z16cmd_handler_0xF0PhiPiPFvPciE
         w _Z16cmd_handler_0xF1PhiPiPFvPciE
         w _Z16cmd_handler_0xF2PhiPiPFvPciE
         w _Z16cmd_handler_0xF3PhiPiPFvPciE
         w _Z16cmd_handler_0xF4PhiPiPFvPciE
         w _Z16cmd_handler_0xF5PhiPiPFvPciE
         w _Z16cmd_handler_0xF6PhiPiPFvPciE
         w _Z16cmd_handler_0xF7PhiPiPFvPciE
         w _Z16cmd_handler_0xF8PhiPiPFvPciE
         w _Z16cmd_handler_0xF9PhiPiPFvPciE
         w _Z16cmd_handler_0xFAPhiPiPFvPciE
         w _Z16cmd_handler_0xFBPhiPiPFvPciE
         w _Z16cmd_handler_0xFCPhiPiPFvPciE
         w _Z16cmd_handler_0xFDPhiPiPFvPciE
         w _Z16cmd_handler_0xFEPhiPiPFvPciE
         w _Z16cmd_handler_0xFFPhiPiPFvPciE
         w _Z21cmd_handler_0x10_0x00PhiPiPFvPciE
         w _Z21cmd_handler_0x10_0x01PhiPiPFvPciE
         w _Z21cmd_handler_0x10_0x02PhiPiPFvPciE
         w _Z21cmd_handler_0x10_0x03PhiPiPFvPciE
         w _Z21cmd_handler_0x10_0x04PhiPiPFvPciE
         w _Z21cmd_handler_0x10_0x05PhiPiPFvPciE
         w _Z21cmd_handler_0x10_0x06PhiPiPFvPciE
         w _Z21cmd_handler_0x10_0x07PhiPiPFvPciE
         w _Z21cmd_handler_0x10_0x08PhiPiPFvPciE
         w _Z21cmd_handler_0x10_0x09PhiPiPFvPciE
         w _Z21cmd_handler_0x10_0x0APhiPiPFvPciE
         w _Z21cmd_handler_0x10_0x0BPhiPiPFvPciE
         w _Z21cmd_handler_0x10_0x0CPhiPiPFvPciE
         w _Z21cmd_handler_0x10_0x0DPhiPiPFvPciE
         w _Z21cmd_handler_0x10_0x0EPhiPiPFvPciE
         w _Z21cmd_handler_0x10_0x0FPhiPiPFvPciE
         w _Z21cmd_handler_0x10_0x10PhiPiPFvPciE
         w _Z21cmd_handler_0x10_0x11PhiPiPFvPciE
         w _Z21cmd_handler_0x10_0x12PhiPiPFvPciE
         w _Z21cmd_handler_0x10_0x13PhiPiPFvPciE
         w _Z21cmd_handler_0x10_0x14PhiPiPFvPciE
         w _Z21cmd_handler_0x10_0x15PhiPiPFvPciE
         w _Z21cmd_handler_0x10_0x16PhiPiPFvPciE
         w _Z21cmd_handler_0x10_0x17PhiPiPFvPciE
         w _Z21cmd_handler_0x10_0x18PhiPiPFvPciE
         w _Z21cmd_handler_0x10_0x19PhiPiPFvPciE
         w _Z21cmd_handler_0x10_0x1APhiPiPFvPciE
         w _Z21cmd_handler_0x10_0x1BPhiPiPFvPciE
         w _Z21cmd_handler_0x10_0x1CPhiPiPFvPciE
         w _Z21cmd_handler_0x10_0x1DPhiPiPFvPciE
         w _Z21cmd_handler_0x10_0x1EPhiPiPFvPciE
         w _Z21cmd_handler_0x10_0x1FPhiPiPFvPciE
         w _Z21cmd_handler_0x10_0x20PhiPiPFvPciE
         w _Z21cmd_handler_0x10_0x21PhiPiPFvPciE
         w _Z21cmd_handler_0x10_0x22PhiPiPFvPciE
         w _Z21cmd_handler_0x10_0x23PhiPiPFvPciE
         w _Z21cmd_handler_0x10_0x24PhiPiPFvPciE
         w _Z21cmd_handler_0x10_0x25PhiPiPFvPciE
         w _Z21cmd_handler_0x10_0x26PhiPiPFvPciE
         w _Z21cmd_handler_0x10_0x27PhiPiPFvPciE
         w _Z21cmd_handler_0x10_0x28PhiPiPFvPciE
         w _Z21cmd_handler_0x10_0x29PhiPiPFvPciE
         w _Z21cmd_handler_0x10_0x2APhiPiPFvPciE
         w _Z21cmd_handler_0x10_0x2BPhiPiPFvPciE
         w _Z21cmd_handler_0x10_0x2CPhiPiPFvPciE
         w _Z21cmd_handler_0x10_0x2DPhiPiPFvPciE
         w _Z21cmd_handler_0x10_0x2EPhiPiPFvPciE
         w _Z21cmd_handler_0x10_0x2FPhiPiPFvPciE
         w _Z21cmd_handler_0x10_0x30PhiPiPFvPciE
         w _Z21cmd_handler_0x10_0x31PhiPiPFvPciE
         w _Z21cmd_handler_0x10_0x32PhiPiPFvPciE
         w _Z21cmd_handler_0x10_0x33PhiPiPFvPciE
         w _Z21cmd_handler_0x10_0x34PhiPiPFvPciE
         w _Z21cmd_handler_0x10_0x35PhiPiPFvPciE
         w _Z21cmd_handler_0x10_0x36PhiPiPFvPciE
         w _Z21cmd_handler_0x10_0x37PhiPiPFvPciE
         w _Z21cmd_handler_0x10_0x38PhiPiPFvPciE
         w _Z21cmd_handler_0x10_0x39PhiPiPFvPciE
         w _Z21cmd_handler_0x10_0x3APhiPiPFvPciE
         w _Z21cmd_handler_0x10_0x3BPhiPiPFvPciE
         w _Z21cmd_handler_0x10_0x3CPhiPiPFvPciE
         w _Z21cmd_handler_0x10_0x3DPhiPiPFvPciE
         w _Z21cmd_handler_0x10_0x3EPhiPiPFvPciE
         w _Z21cmd_handler_0x10_0x3FPhiPiPFvPciE
         w _Z21cmd_handler_0x10_0x40PhiPiPFvPciE
         w _Z21cmd_handler_0x10_0x41PhiPiPFvPciE
         w _Z21cmd_handler_0x10_0x42PhiPiPFvPciE
         w _Z21cmd_handler_0x10_0x43PhiPiPFvPciE
         w _Z21cmd_handler_0x10_0x44PhiPiPFvPciE
         w _Z21cmd_handler_0x10_0x45PhiPiPFvPciE
         w _Z21cmd_handler_0x10_0x46PhiPiPFvPciE
         w _Z21cmd_handler_0x10_0x47PhiPiPFvPciE
         w _Z21cmd_handler_0x10_0x48PhiPiPFvPciE
         w _Z21cmd_handler_0x10_0x49PhiPiPFvPciE
         w _Z21cmd_handler_0x10_0x4APhiPiPFvPciE
         w _Z21cmd_handler_0x10_0x4BPhiPiPFvPciE
         w _Z21cmd_handler_0x10_0x4CPhiPiPFvPciE
         w _Z21cmd_handler_0x10_0x4DPhiPiPFvPciE
         w _Z21cmd_handler_0x10_0x4EPhiPiPFvPciE
         w _Z21cmd_handler_0x10_0x4FPhiPiPFvPciE
         w _Z21cmd_handler_0x10_0x50PhiPiPFvPciE
         w _Z21cmd_handler_0x10_0x51PhiPiPFvPciE
         w _Z21cmd_handler_0x10_0x52PhiPiPFvPciE
         w _Z21cmd_handler_0x10_0x53PhiPiPFvPciE
         w _Z21cmd_handler_0x10_0x54PhiPiPFvPciE
         w _Z21cmd_handler_0x10_0x55PhiPiPFvPciE
         w _Z21cmd_handler_0x10_0x56PhiPiPFvPciE
         w _Z21cmd_handler_0x10_0x57PhiPiPFvPciE
         w _Z21cmd_handler_0x10_0x58PhiPiPFvPciE
         w _Z21cmd_handler_0x10_0x59PhiPiPFvPciE
         w _Z21cmd_handler_0x10_0x5APhiPiPFvPciE
         w _Z21cmd_handler_0x10_0x5BPhiPiPFvPciE
         w _Z21cmd_handler_0x10_0x5CPhiPiPFvPciE
         w _Z21cmd_handler_0x10_0x5DPhiPiPFvPciE
         w _Z21cmd_handler_0x10_0x5EPhiPiPFvPciE
         w _Z21cmd_handler_0x10_0x5FPhiPiPFvPciE
         w _Z21cmd_handler_0x10_0x60PhiPiPFvPciE
         w _Z21cmd_handler_0x10_0x61PhiPiPFvPciE
         w _Z21cmd_handler_0x10_0x62PhiPiPFvPciE
         w _Z21cmd_handler_0x10_0x63PhiPiPFvPciE
         w _Z21cmd_handler_0x10_0x64PhiPiPFvPciE
         w _Z21cmd_handler_0x10_0x65PhiPiPFvPciE
         w _Z21cmd_handler_0x10_0x66PhiPiPFvPciE
         w _Z21cmd_handler_0x10_0x67PhiPiPFvPciE
         w _Z21cmd_handler_0x10_0x68PhiPiPFvPciE
         w _Z21cmd_handler_0x10_0x69PhiPiPFvPciE
         w _Z21cmd_handler_0x10_0x6APhiPiPFvPciE
         w _Z21cmd_handler_0x10_0x6BPhiPiPFvPciE
         w _Z21cmd_handler_0x10_0x6CPhiPiPFvPciE
         w _Z21cmd_handler_0x10_0x6DPhiPiPFvPciE
         w _Z21cmd_handler_0x10_0x6EPhiPiPFvPciE
         w _Z21cmd_handler_0x10_0x6FPhiPiPFvPciE
         w _Z21cmd_handler_0x10_0x70PhiPiPFvPciE
         w _Z21cmd_handler_0x10_0x71PhiPiPFvPciE
         w _Z21cmd_handler_0x10_0x72PhiPiPFvPciE
         w _Z21cmd_handler_0x10_0x73PhiPiPFvPciE
         w _Z21cmd_handler_0x10_0x74PhiPiPFvPciE
         w _Z21cmd_handler_0x10_0x75PhiPiPFvPciE
         w _Z21cmd_handler_0x10_0x76PhiPiPFvPciE
         w _Z21cmd_handler_0x10_0x77PhiPiPFvPciE
         w _Z21cmd_handler_0x10_0x78PhiPiPFvPciE
         w _Z21cmd_handler_0x10_0x79PhiPiPFvPciE
         w _Z21cmd_handler_0x10_0x7APhiPiPFvPciE
         w _Z21cmd_handler_0x10_0x7BPhiPiPFvPciE
         w _Z21cmd_handler_0x10_0x7CPhiPiPFvPciE
         w _Z21cmd_handler_0x10_0x7DPhiPiPFvPciE
         w _Z21cmd_handler_0x10_0x7EPhiPiPFvPciE
         w _Z21cmd_handler_0x10_0x7FPhiPiPFvPciE
         w _Z21cmd_handler_0x10_0x80PhiPiPFvPciE
         w _Z21cmd_handler_0x10_0x81PhiPiPFvPciE
         w _Z21cmd_handler_0x10_0x82PhiPiPFvPciE
         w _Z21cmd_handler_0x10_0x83PhiPiPFvPciE
         w _Z21cmd_handler_0x10_0x84PhiPiPFvPciE
         w _Z21cmd_handler_0x10_0x85PhiPiPFvPciE
         w _Z21cmd_handler_0x10_0x86PhiPiPFvPciE
         w _Z21cmd_handler_0x10_0x87PhiPiPFvPciE
         w _Z21cmd_handler_0x10_0x88PhiPiPFvPciE
         w _Z21cmd_handler_0x10_0x89PhiPiPFvPciE
         w _Z21cmd_handler_0x10_0x8APhiPiPFvPciE
         w _Z21cmd_handler_0x10_0x8BPhiPiPFvPciE
         w _Z21cmd_handler_0x10_0x8CPhiPiPFvPciE
         w _Z21cmd_handler_0x10_0x8DPhiPiPFvPciE
         w _Z21cmd_handler_0x10_0x8EPhiPiPFvPciE
         w _Z21cmd_handler_0x10_0x8FPhiPiPFvPciE
         w _Z21cmd_handler_0x10_0x90PhiPiPFvPciE
         w _Z21cmd_handler_0x10_0x91PhiPiPFvPciE
         w _Z21cmd_handler_0x10_0x92PhiPiPFvPciE
         w _Z21cmd_handler_0x10_0x93PhiPiPFvPciE
         w _Z21cmd_handler_0x10_0x94PhiPiPFvPciE
         w _Z21cmd_handler_0x10_0x95PhiPiPFvPciE
         w _Z21cmd_handler_0x10_0x96PhiPiPFvPciE
         w _Z21cmd_handler_0x10_0x97PhiPiPFvPciE
         w _Z21cmd_handler_0x10_0x98PhiPiPFvPciE
         w _Z21cmd_handler_0x10_0x99PhiPiPFvPciE
         w _Z21cmd_handler_0x10_0x9APhiPiPFvPciE
         w _Z21cmd_handler_0x10_0x9BPhiPiPFvPciE
         w _Z21cmd_handler_0x10_0x9CPhiPiPFvPciE
         w _Z21cmd_handler_0x10_0x9DPhiPiPFvPciE
         w _Z21cmd_handler_0x10_0x9EPhiPiPFvPciE
         w _Z21cmd_handler_0x10_0x9FPhiPiPFvPciE
         w _Z21cmd_handler_0x10_0xA0PhiPiPFvPciE
         w _Z21cmd_handler_0x10_0xA1PhiPiPFvPciE
         w _Z21cmd_handler_0x10_0xA2PhiPiPFvPciE
         w _Z21cmd_handler_0x10_0xA3PhiPiPFvPciE
         w _Z21cmd_handler_0x10_0xA4PhiPiPFvPciE
         w _Z21cmd_handler_0x10_0xA5PhiPiPFvPciE
         w _Z21cmd_handler_0x10_0xA6PhiPiPFvPciE
         w _Z21cmd_handler_0x10_0xA7PhiPiPFvPciE
         w _Z21cmd_handler_0x10_0xA8PhiPiPFvPciE
         w _Z21cmd_handler_0x10_0xA9PhiPiPFvPciE
         w _Z21cmd_handler_0x10_0xAAPhiPiPFvPciE
         w _Z21cmd_handler_0x10_0xABPhiPiPFvPciE
         w _Z21cmd_handler_0x10_0xACPhiPiPFvPciE
         w _Z21cmd_handler_0x10_0xADPhiPiPFvPciE
         w _Z21cmd_handler_0x10_0xAEPhiPiPFvPciE
         w _Z21cmd_handler_0x10_0xAFPhiPiPFvPciE
         w _Z21cmd_handler_0x10_0xB0PhiPiPFvPciE
         w _Z21cmd_handler_0x10_0xB1PhiPiPFvPciE
         w _Z21cmd_handler_0x10_0xB2PhiPiPFvPciE
         w _Z21cmd_handler_0x10_0xB3PhiPiPFvPciE
         w _Z21cmd_handler_0x10_0xB4PhiPiPFvPciE
         w _Z21cmd_handler_0x10_0xB5PhiPiPFvPciE
         w _Z21cmd_handler_0x10_0xB6PhiPiPFvPciE
         w _Z21cmd_handler_0x10_0xB7PhiPiPFvPciE
         w _Z21cmd_handler_0x10_0xB8PhiPiPFvPciE
         w _Z21cmd_handler_0x10_0xB9PhiPiPFvPciE
         w _Z21cmd_handler_0x10_0xBAPhiPiPFvPciE
         w _Z21cmd_handler_0x10_0xBBPhiPiPFvPciE
         w _Z21cmd_handler_0x10_0xBCPhiPiPFvPciE
         w _Z21cmd_handler_0x10_0xBDPhiPiPFvPciE
         w _Z21cmd_handler_0x10_0xBEPhiPiPFvPciE
         w _Z21cmd_handler_0x10_0xBFPhiPiPFvPciE
         w _Z21cmd_handler_0x10_0xC0PhiPiPFvPciE
         w _Z21cmd_handler_0x10_0xC1PhiPiPFvPciE
         w _Z21cmd_handler_0x10_0xC2PhiPiPFvPciE
         w _Z21cmd_handler_0x10_0xC3PhiPiPFvPciE
         w _Z21cmd_handler_0x10_0xC4PhiPiPFvPciE
         w _Z21cmd_handler_0x10_0xC5PhiPiPFvPciE
         w _Z21cmd_handler_0x10_0xC6PhiPiPFvPciE
         w _Z21cmd_handler_0x10_0xC7PhiPiPFvPciE
         w _Z21cmd_handler_0x10_0xC8PhiPiPFvPciE
         w _Z21cmd_handler_0x10_0xC9PhiPiPFvPciE
         w _Z21cmd_handler_0x10_0xCAPhiPiPFvPciE
         w _Z21cmd_handler_0x10_0xCBPhiPiPFvPciE
         w _Z21cmd_handler_0x10_0xCCPhiPiPFvPciE
         w _Z21cmd_handler_0x10_0xCDPhiPiPFvPciE
         w _Z21cmd_handler_0x10_0xCEPhiPiPFvPciE
         w _Z21cmd_handler_0x10_0xCFPhiPiPFvPciE
         w _Z21cmd_handler_0x10_0xD0PhiPiPFvPciE
         w _Z21cmd_handler_0x10_0xD1PhiPiPFvPciE
         w _Z21cmd_handler_0x10_0xD2PhiPiPFvPciE
         w _Z21cmd_handler_0x10_0xD3PhiPiPFvPciE
         w _Z21cmd_handler_0x10_0xD4PhiPiPFvPciE
         w _Z21cmd_handler_0x10_0xD5PhiPiPFvPciE
         w _Z21cmd_handler_0x10_0xD6PhiPiPFvPciE
         w _Z21cmd_handler_0x10_0xD7PhiPiPFvPciE
         w _Z21cmd_handler_0x10_0xD8PhiPiPFvPciE
         w _Z21cmd_handler_0x10_0xD9PhiPiPFvPciE
         w _Z21cmd_handler_0x10_0xDAPhiPiPFvPciE
         w _Z21cmd_handler_0x10_0xDBPhiPiPFvPciE
         w _Z21cmd_handler_0x10_0xDCPhiPiPFvPciE
         w _Z21cmd_handler_0x10_0xDDPhiPiPFvPciE
         w _Z21cmd_handler_0x10_0xDEPhiPiPFvPciE
         w _Z21cmd_handler_0x10_0xDFPhiPiPFvPciE
         w _Z21cmd_handler_0x10_0xE0PhiPiPFvPciE
         w _Z21cmd_handler_0x10_0xE1PhiPiPFvPciE
         w _Z21cmd_handler_0x10_0xE2PhiPiPFvPciE
         w _Z21cmd_handler_0x10_0xE3PhiPiPFvPciE
         w _Z21cmd_handler_0x10_0xE4PhiPiPFvPciE
         w _Z21cmd_handler_0x10_0xE5PhiPiPFvPciE
         w _Z21cmd_handler_0x10_0xE6PhiPiPFvPciE
         w _Z21cmd_handler_0x10_0xE7PhiPiPFvPciE
         w _Z21cmd_handler_0x10_0xE8PhiPiPFvPciE
         w _Z21cmd_handler_0x10_0xE9PhiPiPFvPciE
         w _Z21cmd_handler_0x10_0xEAPhiPiPFvPciE
         w _Z21cmd_handler_0x10_0xEBPhiPiPFvPciE
         w _Z21cmd_handler_0x10_0xECPhiPiPFvPciE
         w _Z21cmd_handler_0x10_0xEDPhiPiPFvPciE
         w _Z21cmd_handler_0x10_0xEEPhiPiPFvPciE
         w _Z21cmd_handler_0x10_0xEFPhiPiPFvPciE
         w _Z21cmd_handler_0x10_0xF0PhiPiPFvPciE
         w _Z21cmd_handler_0x10_0xF1PhiPiPFvPciE
         w _Z21cmd_handler_0x10_0xF2PhiPiPFvPciE
         w _Z21cmd_handler_0x10_0xF3PhiPiPFvPciE
         w _Z21cmd_handler_0x10_0xF4PhiPiPFvPciE
         w _Z21cmd_handler_0x10_0xF5PhiPiPFvPciE
         w _Z21cmd_handler_0x10_0xF6PhiPiPFvPciE
         w _Z21cmd_handler_0x10_0xF7PhiPiPFvPciE
         w _Z21cmd_handler_0x10_0xF8PhiPiPFvPciE
         w _Z21cmd_handler_0x10_0xF9PhiPiPFvPciE
         w _Z21cmd_handler_0x10_0xFAPhiPiPFvPciE
         w _Z21cmd_handler_0x10_0xFBPhiPiPFvPciE
         w _Z21cmd_handler_0x10_0xFCPhiPiPFvPciE
         w _Z21cmd_handler_0x10_0xFDPhiPiPFvPciE
         w _Z21cmd_handler_0x10_0xFEPhiPiPFvPciE
         w _Z21cmd_handler_0x10_0xFFPhiPiPFvPciE
         w _Z21cmd_handler_0x1b_0x00PhiPiPFvPciE
         w _Z21cmd_handler_0x1b_0x01PhiPiPFvPciE
         w _Z21cmd_handler_0x1b_0x02PhiPiPFvPciE
         w _Z21cmd_handler_0x1b_0x03PhiPiPFvPciE
         w _Z21cmd_handler_0x1b_0x04PhiPiPFvPciE
         w _Z21cmd_handler_0x1b_0x05PhiPiPFvPciE
         w _Z21cmd_handler_0x1b_0x06PhiPiPFvPciE
         w _Z21cmd_handler_0x1b_0x07PhiPiPFvPciE
         w _Z21cmd_handler_0x1b_0x08PhiPiPFvPciE
         w _Z21cmd_handler_0x1b_0x09PhiPiPFvPciE
         w _Z21cmd_handler_0x1b_0x0APhiPiPFvPciE
         w _Z21cmd_handler_0x1b_0x0BPhiPiPFvPciE
         w _Z21cmd_handler_0x1b_0x0CPhiPiPFvPciE
         w _Z21cmd_handler_0x1b_0x0DPhiPiPFvPciE
         w _Z21cmd_handler_0x1b_0x0EPhiPiPFvPciE
         w _Z21cmd_handler_0x1b_0x0FPhiPiPFvPciE
         w _Z21cmd_handler_0x1b_0x10PhiPiPFvPciE
         w _Z21cmd_handler_0x1b_0x11PhiPiPFvPciE
         w _Z21cmd_handler_0x1b_0x12PhiPiPFvPciE
         w _Z21cmd_handler_0x1b_0x13PhiPiPFvPciE
         w _Z21cmd_handler_0x1b_0x14PhiPiPFvPciE
         w _Z21cmd_handler_0x1b_0x15PhiPiPFvPciE
         w _Z21cmd_handler_0x1b_0x16PhiPiPFvPciE
         w _Z21cmd_handler_0x1b_0x17PhiPiPFvPciE
         w _Z21cmd_handler_0x1b_0x18PhiPiPFvPciE
         w _Z21cmd_handler_0x1b_0x19PhiPiPFvPciE
         w _Z21cmd_handler_0x1b_0x1APhiPiPFvPciE
         w _Z21cmd_handler_0x1b_0x1BPhiPiPFvPciE
         w _Z21cmd_handler_0x1b_0x1CPhiPiPFvPciE
         w _Z21cmd_handler_0x1b_0x1DPhiPiPFvPciE
         w _Z21cmd_handler_0x1b_0x1EPhiPiPFvPciE
         w _Z21cmd_handler_0x1b_0x1FPhiPiPFvPciE
         w _Z21cmd_handler_0x1b_0x20PhiPiPFvPciE
         w _Z21cmd_handler_0x1b_0x21PhiPiPFvPciE
         w _Z21cmd_handler_0x1b_0x22PhiPiPFvPciE
         w _Z21cmd_handler_0x1b_0x23PhiPiPFvPciE
         w _Z21cmd_handler_0x1b_0x24PhiPiPFvPciE
         w _Z21cmd_handler_0x1b_0x25PhiPiPFvPciE
         w _Z21cmd_handler_0x1b_0x26PhiPiPFvPciE
         w _Z21cmd_handler_0x1b_0x27PhiPiPFvPciE
         w _Z21cmd_handler_0x1b_0x28PhiPiPFvPciE
         w _Z21cmd_handler_0x1b_0x29PhiPiPFvPciE
         w _Z21cmd_handler_0x1b_0x2APhiPiPFvPciE
         w _Z21cmd_handler_0x1b_0x2BPhiPiPFvPciE
         w _Z21cmd_handler_0x1b_0x2CPhiPiPFvPciE
         w _Z21cmd_handler_0x1b_0x2DPhiPiPFvPciE
         w _Z21cmd_handler_0x1b_0x2EPhiPiPFvPciE
         w _Z21cmd_handler_0x1b_0x2FPhiPiPFvPciE
         w _Z21cmd_handler_0x1b_0x30PhiPiPFvPciE
         w _Z21cmd_handler_0x1b_0x31PhiPiPFvPciE
         w _Z21cmd_handler_0x1b_0x32PhiPiPFvPciE
         w _Z21cmd_handler_0x1b_0x33PhiPiPFvPciE
         w _Z21cmd_handler_0x1b_0x34PhiPiPFvPciE
         w _Z21cmd_handler_0x1b_0x35PhiPiPFvPciE
         w _Z21cmd_handler_0x1b_0x36PhiPiPFvPciE
         w _Z21cmd_handler_0x1b_0x37PhiPiPFvPciE
         w _Z21cmd_handler_0x1b_0x38PhiPiPFvPciE
         w _Z21cmd_handler_0x1b_0x39PhiPiPFvPciE
         w _Z21cmd_handler_0x1b_0x3APhiPiPFvPciE
         w _Z21cmd_handler_0x1b_0x3BPhiPiPFvPciE
         w _Z21cmd_handler_0x1b_0x3CPhiPiPFvPciE
         w _Z21cmd_handler_0x1b_0x3DPhiPiPFvPciE
         w _Z21cmd_handler_0x1b_0x3EPhiPiPFvPciE
         w _Z21cmd_handler_0x1b_0x3FPhiPiPFvPciE
         w _Z21cmd_handler_0x1b_0x40PhiPiPFvPciE
         w _Z21cmd_handler_0x1b_0x41PhiPiPFvPciE
         w _Z21cmd_handler_0x1b_0x42PhiPiPFvPciE
         w _Z21cmd_handler_0x1b_0x43PhiPiPFvPciE
         w _Z21cmd_handler_0x1b_0x44PhiPiPFvPciE
         w _Z21cmd_handler_0x1b_0x45PhiPiPFvPciE
         w _Z21cmd_handler_0x1b_0x46PhiPiPFvPciE
         w _Z21cmd_handler_0x1b_0x47PhiPiPFvPciE
         w _Z21cmd_handler_0x1b_0x48PhiPiPFvPciE
         w _Z21cmd_handler_0x1b_0x49PhiPiPFvPciE
         w _Z21cmd_handler_0x1b_0x4APhiPiPFvPciE
         w _Z21cmd_handler_0x1b_0x4BPhiPiPFvPciE
         w _Z21cmd_handler_0x1b_0x4CPhiPiPFvPciE
         w _Z21cmd_handler_0x1b_0x4DPhiPiPFvPciE
         w _Z21cmd_handler_0x1b_0x4EPhiPiPFvPciE
         w _Z21cmd_handler_0x1b_0x4FPhiPiPFvPciE
         w _Z21cmd_handler_0x1b_0x50PhiPiPFvPciE
         w _Z21cmd_handler_0x1b_0x51PhiPiPFvPciE
         w _Z21cmd_handler_0x1b_0x52PhiPiPFvPciE
         w _Z21cmd_handler_0x1b_0x53PhiPiPFvPciE
         w _Z21cmd_handler_0x1b_0x54PhiPiPFvPciE
         w _Z21cmd_handler_0x1b_0x55PhiPiPFvPciE
         w _Z21cmd_handler_0x1b_0x56PhiPiPFvPciE
         w _Z21cmd_handler_0x1b_0x57PhiPiPFvPciE
         w _Z21cmd_handler_0x1b_0x58PhiPiPFvPciE
         w _Z21cmd_handler_0x1b_0x59PhiPiPFvPciE
         w _Z21cmd_handler_0x1b_0x5APhiPiPFvPciE
         w _Z21cmd_handler_0x1b_0x5BPhiPiPFvPciE
         w _Z21cmd_handler_0x1b_0x5CPhiPiPFvPciE
         w _Z21cmd_handler_0x1b_0x5DPhiPiPFvPciE
         w _Z21cmd_handler_0x1b_0x5EPhiPiPFvPciE
         w _Z21cmd_handler_0x1b_0x5FPhiPiPFvPciE
         w _Z21cmd_handler_0x1b_0x60PhiPiPFvPciE
         w _Z21cmd_handler_0x1b_0x61PhiPiPFvPciE
         w _Z21cmd_handler_0x1b_0x62PhiPiPFvPciE
         w _Z21cmd_handler_0x1b_0x63PhiPiPFvPciE
         w _Z21cmd_handler_0x1b_0x64PhiPiPFvPciE
         w _Z21cmd_handler_0x1b_0x65PhiPiPFvPciE
         w _Z21cmd_handler_0x1b_0x66PhiPiPFvPciE
         w _Z21cmd_handler_0x1b_0x67PhiPiPFvPciE
         w _Z21cmd_handler_0x1b_0x68PhiPiPFvPciE
         w _Z21cmd_handler_0x1b_0x69PhiPiPFvPciE
         w _Z21cmd_handler_0x1b_0x6APhiPiPFvPciE
         w _Z21cmd_handler_0x1b_0x6BPhiPiPFvPciE
         w _Z21cmd_handler_0x1b_0x6CPhiPiPFvPciE
         w _Z21cmd_handler_0x1b_0x6DPhiPiPFvPciE
         w _Z21cmd_handler_0x1b_0x6EPhiPiPFvPciE
         w _Z21cmd_handler_0x1b_0x6FPhiPiPFvPciE
         w _Z21cmd_handler_0x1b_0x70PhiPiPFvPciE
         w _Z21cmd_handler_0x1b_0x71PhiPiPFvPciE
         w _Z21cmd_handler_0x1b_0x72PhiPiPFvPciE
         w _Z21cmd_handler_0x1b_0x73PhiPiPFvPciE
         w _Z21cmd_handler_0x1b_0x74PhiPiPFvPciE
         w _Z21cmd_handler_0x1b_0x75PhiPiPFvPciE
         w _Z21cmd_handler_0x1b_0x76PhiPiPFvPciE
         w _Z21cmd_handler_0x1b_0x77PhiPiPFvPciE
         w _Z21cmd_handler_0x1b_0x78PhiPiPFvPciE
         w _Z21cmd_handler_0x1b_0x79PhiPiPFvPciE
         w _Z21cmd_handler_0x1b_0x7APhiPiPFvPciE
         w _Z21cmd_handler_0x1b_0x7BPhiPiPFvPciE
         w _Z21cmd_handler_0x1b_0x7CPhiPiPFvPciE
         w _Z21cmd_handler_0x1b_0x7DPhiPiPFvPciE
         w _Z21cmd_handler_0x1b_0x7EPhiPiPFvPciE
         w _Z21cmd_handler_0x1b_0x7FPhiPiPFvPciE
         w _Z21cmd_handler_0x1b_0x80PhiPiPFvPciE
         w _Z21cmd_handler_0x1b_0x81PhiPiPFvPciE
         w _Z21cmd_handler_0x1b_0x82PhiPiPFvPciE
         w _Z21cmd_handler_0x1b_0x83PhiPiPFvPciE
         w _Z21cmd_handler_0x1b_0x84PhiPiPFvPciE
         w _Z21cmd_handler_0x1b_0x85PhiPiPFvPciE
         w _Z21cmd_handler_0x1b_0x86PhiPiPFvPciE
         w _Z21cmd_handler_0x1b_0x87PhiPiPFvPciE
         w _Z21cmd_handler_0x1b_0x88PhiPiPFvPciE
         w _Z21cmd_handler_0x1b_0x89PhiPiPFvPciE
         w _Z21cmd_handler_0x1b_0x8APhiPiPFvPciE
         w _Z21cmd_handler_0x1b_0x8BPhiPiPFvPciE
         w _Z21cmd_handler_0x1b_0x8CPhiPiPFvPciE
         w _Z21cmd_handler_0x1b_0x8DPhiPiPFvPciE
         w _Z21cmd_handler_0x1b_0x8EPhiPiPFvPciE
         w _Z21cmd_handler_0x1b_0x8FPhiPiPFvPciE
         w _Z21cmd_handler_0x1b_0x90PhiPiPFvPciE
         w _Z21cmd_handler_0x1b_0x91PhiPiPFvPciE
         w _Z21cmd_handler_0x1b_0x92PhiPiPFvPciE
         w _Z21cmd_handler_0x1b_0x93PhiPiPFvPciE
         w _Z21cmd_handler_0x1b_0x94PhiPiPFvPciE
         w _Z21cmd_handler_0x1b_0x95PhiPiPFvPciE
         w _Z21cmd_handler_0x1b_0x96PhiPiPFvPciE
         w _Z21cmd_handler_0x1b_0x97PhiPiPFvPciE
         w _Z21cmd_handler_0x1b_0x98PhiPiPFvPciE
         w _Z21cmd_handler_0x1b_0x99PhiPiPFvPciE
         w _Z21cmd_handler_0x1b_0x9APhiPiPFvPciE
         w _Z21cmd_handler_0x1b_0x9BPhiPiPFvPciE
         w _Z21cmd_handler_0x1b_0x9CPhiPiPFvPciE
         w _Z21cmd_handler_0x1b_0x9DPhiPiPFvPciE
         w _Z21cmd_handler_0x1b_0x9EPhiPiPFvPciE
         w _Z21cmd_handler_0x1b_0x9FPhiPiPFvPciE
         w _Z21cmd_handler_0x1b_0xA0PhiPiPFvPciE
         w _Z21cmd_handler_0x1b_0xA1PhiPiPFvPciE
         w _Z21cmd_handler_0x1b_0xA2PhiPiPFvPciE
         w _Z21cmd_handler_0x1b_0xA3PhiPiPFvPciE
         w _Z21cmd_handler_0x1b_0xA4PhiPiPFvPciE
         w _Z21cmd_handler_0x1b_0xA5PhiPiPFvPciE
         w _Z21cmd_handler_0x1b_0xA6PhiPiPFvPciE
         w _Z21cmd_handler_0x1b_0xA7PhiPiPFvPciE
         w _Z21cmd_handler_0x1b_0xA8PhiPiPFvPciE
         w _Z21cmd_handler_0x1b_0xA9PhiPiPFvPciE
         w _Z21cmd_handler_0x1b_0xAAPhiPiPFvPciE
         w _Z21cmd_handler_0x1b_0xABPhiPiPFvPciE
         w _Z21cmd_handler_0x1b_0xACPhiPiPFvPciE
         w _Z21cmd_handler_0x1b_0xADPhiPiPFvPciE
         w _Z21cmd_handler_0x1b_0xAEPhiPiPFvPciE
         w _Z21cmd_handler_0x1b_0xAFPhiPiPFvPciE
         w _Z21cmd_handler_0x1b_0xB0PhiPiPFvPciE
         w _Z21cmd_handler_0x1b_0xB1PhiPiPFvPciE
         w _Z21cmd_handler_0x1b_0xB2PhiPiPFvPciE
         w _Z21cmd_handler_0x1b_0xB3PhiPiPFvPciE
         w _Z21cmd_handler_0x1b_0xB4PhiPiPFvPciE
         w _Z21cmd_handler_0x1b_0xB5PhiPiPFvPciE
         w _Z21cmd_handler_0x1b_0xB6PhiPiPFvPciE
         w _Z21cmd_handler_0x1b_0xB7PhiPiPFvPciE
         w _Z21cmd_handler_0x1b_0xB8PhiPiPFvPciE
         w _Z21cmd_handler_0x1b_0xB9PhiPiPFvPciE
         w _Z21cmd_handler_0x1b_0xBAPhiPiPFvPciE
         w _Z21cmd_handler_0x1b_0xBBPhiPiPFvPciE
         w _Z21cmd_handler_0x1b_0xBCPhiPiPFvPciE
         w _Z21cmd_handler_0x1b_0xBDPhiPiPFvPciE
         w _Z21cmd_handler_0x1b_0xBEPhiPiPFvPciE
         w _Z21cmd_handler_0x1b_0xBFPhiPiPFvPciE
         w _Z21cmd_handler_0x1b_0xC0PhiPiPFvPciE
         w _Z21cmd_handler_0x1b_0xC1PhiPiPFvPciE
         w _Z21cmd_handler_0x1b_0xC2PhiPiPFvPciE
         w _Z21cmd_handler_0x1b_0xC3PhiPiPFvPciE
         w _Z21cmd_handler_0x1b_0xC4PhiPiPFvPciE
         w _Z21cmd_handler_0x1b_0xC5PhiPiPFvPciE
         w _Z21cmd_handler_0x1b_0xC6PhiPiPFvPciE
         w _Z21cmd_handler_0x1b_0xC7PhiPiPFvPciE
         w _Z21cmd_handler_0x1b_0xC8PhiPiPFvPciE
         w _Z21cmd_handler_0x1b_0xC9PhiPiPFvPciE
         w _Z21cmd_handler_0x1b_0xCAPhiPiPFvPciE
         w _Z21cmd_handler_0x1b_0xCBPhiPiPFvPciE
         w _Z21cmd_handler_0x1b_0xCCPhiPiPFvPciE
         w _Z21cmd_handler_0x1b_0xCDPhiPiPFvPciE
         w _Z21cmd_handler_0x1b_0xCEPhiPiPFvPciE
         w _Z21cmd_handler_0x1b_0xCFPhiPiPFvPciE
         w _Z21cmd_handler_0x1b_0xD0PhiPiPFvPciE
         w _Z21cmd_handler_0x1b_0xD1PhiPiPFvPciE
         w _Z21cmd_handler_0x1b_0xD2PhiPiPFvPciE
         w _Z21cmd_handler_0x1b_0xD3PhiPiPFvPciE
         w _Z21cmd_handler_0x1b_0xD4PhiPiPFvPciE
         w _Z21cmd_handler_0x1b_0xD5PhiPiPFvPciE
         w _Z21cmd_handler_0x1b_0xD6PhiPiPFvPciE
         w _Z21cmd_handler_0x1b_0xD7PhiPiPFvPciE
         w _Z21cmd_handler_0x1b_0xD8PhiPiPFvPciE
         w _Z21cmd_handler_0x1b_0xD9PhiPiPFvPciE
         w _Z21cmd_handler_0x1b_0xDAPhiPiPFvPciE
         w _Z21cmd_handler_0x1b_0xDBPhiPiPFvPciE
         w _Z21cmd_handler_0x1b_0xDCPhiPiPFvPciE
         w _Z21cmd_handler_0x1b_0xDDPhiPiPFvPciE
         w _Z21cmd_handler_0x1b_0xDEPhiPiPFvPciE
         w _Z21cmd_handler_0x1b_0xDFPhiPiPFvPciE
         w _Z21cmd_handler_0x1b_0xE0PhiPiPFvPciE
         w _Z21cmd_handler_0x1b_0xE1PhiPiPFvPciE
         w _Z21cmd_handler_0x1b_0xE2PhiPiPFvPciE
         w _Z21cmd_handler_0x1b_0xE3PhiPiPFvPciE
         w _Z21cmd_handler_0x1b_0xE4PhiPiPFvPciE
         w _Z21cmd_handler_0x1b_0xE5PhiPiPFvPciE
         w _Z21cmd_handler_0x1b_0xE6PhiPiPFvPciE
         w _Z21cmd_handler_0x1b_0xE7PhiPiPFvPciE
         w _Z21cmd_handler_0x1b_0xE8PhiPiPFvPciE
         w _Z21cmd_handler_0x1b_0xE9PhiPiPFvPciE
         w _Z21cmd_handler_0x1b_0xEAPhiPiPFvPciE
         w _Z21cmd_handler_0x1b_0xEBPhiPiPFvPciE
         w _Z21cmd_handler_0x1b_0xECPhiPiPFvPciE
         w _Z21cmd_handler_0x1b_0xEDPhiPiPFvPciE
         w _Z21cmd_handler_0x1b_0xEEPhiPiPFvPciE
         w _Z21cmd_handler_0x1b_0xEFPhiPiPFvPciE
         w _Z21cmd_handler_0x1b_0xF0PhiPiPFvPciE
         w _Z21cmd_handler_0x1b_0xF1PhiPiPFvPciE
         w _Z21cmd_handler_0x1b_0xF2PhiPiPFvPciE
         w _Z21cmd_handler_0x1b_0xF3PhiPiPFvPciE
         w _Z21cmd_handler_0x1b_0xF4PhiPiPFvPciE
         w _Z21cmd_handler_0x1b_0xF5PhiPiPFvPciE
         w _Z21cmd_handler_0x1b_0xF6PhiPiPFvPciE
         w _Z21cmd_handler_0x1b_0xF7PhiPiPFvPciE
         w _Z21cmd_handler_0x1b_0xF8PhiPiPFvPciE
         w _Z21cmd_handler_0x1b_0xF9PhiPiPFvPciE
         w _Z21cmd_handler_0x1b_0xFAPhiPiPFvPciE
         w _Z21cmd_handler_0x1b_0xFBPhiPiPFvPciE
         w _Z21cmd_handler_0x1b_0xFCPhiPiPFvPciE
         w _Z21cmd_handler_0x1b_0xFDPhiPiPFvPciE
         w _Z21cmd_handler_0x1b_0xFEPhiPiPFvPciE
         w _Z21cmd_handler_0x1b_0xFFPhiPiPFvPciE
         w _Z21cmd_handler_0x1c_0x00PhiPiPFvPciE
         w _Z21cmd_handler_0x1c_0x01PhiPiPFvPciE
         w _Z21cmd_handler_0x1c_0x02PhiPiPFvPciE
         w _Z21cmd_handler_0x1c_0x03PhiPiPFvPciE
         w _Z21cmd_handler_0x1c_0x04PhiPiPFvPciE
         w _Z21cmd_handler_0x1c_0x05PhiPiPFvPciE
         w _Z21cmd_handler_0x1c_0x06PhiPiPFvPciE
         w _Z21cmd_handler_0x1c_0x07PhiPiPFvPciE
         w _Z21cmd_handler_0x1c_0x08PhiPiPFvPciE
         w _Z21cmd_handler_0x1c_0x09PhiPiPFvPciE
         w _Z21cmd_handler_0x1c_0x0APhiPiPFvPciE
         w _Z21cmd_handler_0x1c_0x0BPhiPiPFvPciE
         w _Z21cmd_handler_0x1c_0x0CPhiPiPFvPciE
         w _Z21cmd_handler_0x1c_0x0DPhiPiPFvPciE
         w _Z21cmd_handler_0x1c_0x0EPhiPiPFvPciE
         w _Z21cmd_handler_0x1c_0x0FPhiPiPFvPciE
         w _Z21cmd_handler_0x1c_0x10PhiPiPFvPciE
         w _Z21cmd_handler_0x1c_0x11PhiPiPFvPciE
         w _Z21cmd_handler_0x1c_0x12PhiPiPFvPciE
         w _Z21cmd_handler_0x1c_0x13PhiPiPFvPciE
         w _Z21cmd_handler_0x1c_0x14PhiPiPFvPciE
         w _Z21cmd_handler_0x1c_0x15PhiPiPFvPciE
         w _Z21cmd_handler_0x1c_0x16PhiPiPFvPciE
         w _Z21cmd_handler_0x1c_0x17PhiPiPFvPciE
         w _Z21cmd_handler_0x1c_0x18PhiPiPFvPciE
         w _Z21cmd_handler_0x1c_0x19PhiPiPFvPciE
         w _Z21cmd_handler_0x1c_0x1APhiPiPFvPciE
         w _Z21cmd_handler_0x1c_0x1BPhiPiPFvPciE
         w _Z21cmd_handler_0x1c_0x1CPhiPiPFvPciE
         w _Z21cmd_handler_0x1c_0x1DPhiPiPFvPciE
         w _Z21cmd_handler_0x1c_0x1EPhiPiPFvPciE
         w _Z21cmd_handler_0x1c_0x1FPhiPiPFvPciE
         w _Z21cmd_handler_0x1c_0x20PhiPiPFvPciE
         w _Z21cmd_handler_0x1c_0x21PhiPiPFvPciE
         w _Z21cmd_handler_0x1c_0x22PhiPiPFvPciE
         w _Z21cmd_handler_0x1c_0x23PhiPiPFvPciE
         w _Z21cmd_handler_0x1c_0x24PhiPiPFvPciE
         w _Z21cmd_handler_0x1c_0x25PhiPiPFvPciE
         w _Z21cmd_handler_0x1c_0x26PhiPiPFvPciE
         w _Z21cmd_handler_0x1c_0x27PhiPiPFvPciE
         w _Z21cmd_handler_0x1c_0x28PhiPiPFvPciE
         w _Z21cmd_handler_0x1c_0x29PhiPiPFvPciE
         w _Z21cmd_handler_0x1c_0x2APhiPiPFvPciE
         w _Z21cmd_handler_0x1c_0x2BPhiPiPFvPciE
         w _Z21cmd_handler_0x1c_0x2CPhiPiPFvPciE
         w _Z21cmd_handler_0x1c_0x2DPhiPiPFvPciE
         w _Z21cmd_handler_0x1c_0x2EPhiPiPFvPciE
         w _Z21cmd_handler_0x1c_0x2FPhiPiPFvPciE
         w _Z21cmd_handler_0x1c_0x30PhiPiPFvPciE
         w _Z21cmd_handler_0x1c_0x31PhiPiPFvPciE
         w _Z21cmd_handler_0x1c_0x32PhiPiPFvPciE
         w _Z21cmd_handler_0x1c_0x33PhiPiPFvPciE
         w _Z21cmd_handler_0x1c_0x34PhiPiPFvPciE
         w _Z21cmd_handler_0x1c_0x35PhiPiPFvPciE
         w _Z21cmd_handler_0x1c_0x36PhiPiPFvPciE
         w _Z21cmd_handler_0x1c_0x37PhiPiPFvPciE
         w _Z21cmd_handler_0x1c_0x38PhiPiPFvPciE
         w _Z21cmd_handler_0x1c_0x39PhiPiPFvPciE
         w _Z21cmd_handler_0x1c_0x3APhiPiPFvPciE
         w _Z21cmd_handler_0x1c_0x3BPhiPiPFvPciE
         w _Z21cmd_handler_0x1c_0x3CPhiPiPFvPciE
         w _Z21cmd_handler_0x1c_0x3DPhiPiPFvPciE
         w _Z21cmd_handler_0x1c_0x3EPhiPiPFvPciE
         w _Z21cmd_handler_0x1c_0x3FPhiPiPFvPciE
         w _Z21cmd_handler_0x1c_0x40PhiPiPFvPciE
         w _Z21cmd_handler_0x1c_0x41PhiPiPFvPciE
         w _Z21cmd_handler_0x1c_0x42PhiPiPFvPciE
         w _Z21cmd_handler_0x1c_0x43PhiPiPFvPciE
         w _Z21cmd_handler_0x1c_0x44PhiPiPFvPciE
         w _Z21cmd_handler_0x1c_0x45PhiPiPFvPciE
         w _Z21cmd_handler_0x1c_0x46PhiPiPFvPciE
         w _Z21cmd_handler_0x1c_0x47PhiPiPFvPciE
         w _Z21cmd_handler_0x1c_0x48PhiPiPFvPciE
         w _Z21cmd_handler_0x1c_0x49PhiPiPFvPciE
         w _Z21cmd_handler_0x1c_0x4APhiPiPFvPciE
         w _Z21cmd_handler_0x1c_0x4BPhiPiPFvPciE
         w _Z21cmd_handler_0x1c_0x4CPhiPiPFvPciE
         w _Z21cmd_handler_0x1c_0x4DPhiPiPFvPciE
         w _Z21cmd_handler_0x1c_0x4EPhiPiPFvPciE
         w _Z21cmd_handler_0x1c_0x4FPhiPiPFvPciE
         w _Z21cmd_handler_0x1c_0x50PhiPiPFvPciE
         w _Z21cmd_handler_0x1c_0x51PhiPiPFvPciE
         w _Z21cmd_handler_0x1c_0x52PhiPiPFvPciE
         w _Z21cmd_handler_0x1c_0x53PhiPiPFvPciE
         w _Z21cmd_handler_0x1c_0x54PhiPiPFvPciE
         w _Z21cmd_handler_0x1c_0x55PhiPiPFvPciE
         w _Z21cmd_handler_0x1c_0x56PhiPiPFvPciE
         w _Z21cmd_handler_0x1c_0x57PhiPiPFvPciE
         w _Z21cmd_handler_0x1c_0x58PhiPiPFvPciE
         w _Z21cmd_handler_0x1c_0x59PhiPiPFvPciE
         w _Z21cmd_handler_0x1c_0x5APhiPiPFvPciE
         w _Z21cmd_handler_0x1c_0x5BPhiPiPFvPciE
         w _Z21cmd_handler_0x1c_0x5CPhiPiPFvPciE
         w _Z21cmd_handler_0x1c_0x5DPhiPiPFvPciE
         w _Z21cmd_handler_0x1c_0x5EPhiPiPFvPciE
         w _Z21cmd_handler_0x1c_0x5FPhiPiPFvPciE
         w _Z21cmd_handler_0x1c_0x60PhiPiPFvPciE
         w _Z21cmd_handler_0x1c_0x61PhiPiPFvPciE
         w _Z21cmd_handler_0x1c_0x62PhiPiPFvPciE
         w _Z21cmd_handler_0x1c_0x63PhiPiPFvPciE
         w _Z21cmd_handler_0x1c_0x64PhiPiPFvPciE
         w _Z21cmd_handler_0x1c_0x65PhiPiPFvPciE
         w _Z21cmd_handler_0x1c_0x66PhiPiPFvPciE
         w _Z21cmd_handler_0x1c_0x67PhiPiPFvPciE
         w _Z21cmd_handler_0x1c_0x68PhiPiPFvPciE
         w _Z21cmd_handler_0x1c_0x69PhiPiPFvPciE
         w _Z21cmd_handler_0x1c_0x6APhiPiPFvPciE
         w _Z21cmd_handler_0x1c_0x6BPhiPiPFvPciE
         w _Z21cmd_handler_0x1c_0x6CPhiPiPFvPciE
         w _Z21cmd_handler_0x1c_0x6DPhiPiPFvPciE
         w _Z21cmd_handler_0x1c_0x6EPhiPiPFvPciE
         w _Z21cmd_handler_0x1c_0x6FPhiPiPFvPciE
         w _Z21cmd_handler_0x1c_0x70PhiPiPFvPciE
         w _Z21cmd_handler_0x1c_0x71PhiPiPFvPciE
         w _Z21cmd_handler_0x1c_0x72PhiPiPFvPciE
         w _Z21cmd_handler_0x1c_0x73PhiPiPFvPciE
         w _Z21cmd_handler_0x1c_0x74PhiPiPFvPciE
         w _Z21cmd_handler_0x1c_0x75PhiPiPFvPciE
         w _Z21cmd_handler_0x1c_0x76PhiPiPFvPciE
         w _Z21cmd_handler_0x1c_0x77PhiPiPFvPciE
         w _Z21cmd_handler_0x1c_0x78PhiPiPFvPciE
         w _Z21cmd_handler_0x1c_0x79PhiPiPFvPciE
         w _Z21cmd_handler_0x1c_0x7APhiPiPFvPciE
         w _Z21cmd_handler_0x1c_0x7BPhiPiPFvPciE
         w _Z21cmd_handler_0x1c_0x7CPhiPiPFvPciE
         w _Z21cmd_handler_0x1c_0x7DPhiPiPFvPciE
         w _Z21cmd_handler_0x1c_0x7EPhiPiPFvPciE
         w _Z21cmd_handler_0x1c_0x7FPhiPiPFvPciE
         w _Z21cmd_handler_0x1c_0x80PhiPiPFvPciE
         w _Z21cmd_handler_0x1c_0x81PhiPiPFvPciE
         w _Z21cmd_handler_0x1c_0x82PhiPiPFvPciE
         w _Z21cmd_handler_0x1c_0x83PhiPiPFvPciE
         w _Z21cmd_handler_0x1c_0x84PhiPiPFvPciE
         w _Z21cmd_handler_0x1c_0x85PhiPiPFvPciE
         w _Z21cmd_handler_0x1c_0x86PhiPiPFvPciE
         w _Z21cmd_handler_0x1c_0x87PhiPiPFvPciE
         w _Z21cmd_handler_0x1c_0x88PhiPiPFvPciE
         w _Z21cmd_handler_0x1c_0x89PhiPiPFvPciE
         w _Z21cmd_handler_0x1c_0x8APhiPiPFvPciE
         w _Z21cmd_handler_0x1c_0x8BPhiPiPFvPciE
         w _Z21cmd_handler_0x1c_0x8CPhiPiPFvPciE
         w _Z21cmd_handler_0x1c_0x8DPhiPiPFvPciE
         w _Z21cmd_handler_0x1c_0x8EPhiPiPFvPciE
         w _Z21cmd_handler_0x1c_0x8FPhiPiPFvPciE
         w _Z21cmd_handler_0x1c_0x90PhiPiPFvPciE
         w _Z21cmd_handler_0x1c_0x91PhiPiPFvPciE
         w _Z21cmd_handler_0x1c_0x92PhiPiPFvPciE
         w _Z21cmd_handler_0x1c_0x93PhiPiPFvPciE
         w _Z21cmd_handler_0x1c_0x94PhiPiPFvPciE
         w _Z21cmd_handler_0x1c_0x95PhiPiPFvPciE
         w _Z21cmd_handler_0x1c_0x96PhiPiPFvPciE
         w _Z21cmd_handler_0x1c_0x97PhiPiPFvPciE
         w _Z21cmd_handler_0x1c_0x98PhiPiPFvPciE
         w _Z21cmd_handler_0x1c_0x99PhiPiPFvPciE
         w _Z21cmd_handler_0x1c_0x9APhiPiPFvPciE
         w _Z21cmd_handler_0x1c_0x9BPhiPiPFvPciE
         w _Z21cmd_handler_0x1c_0x9CPhiPiPFvPciE
         w _Z21cmd_handler_0x1c_0x9DPhiPiPFvPciE
         w _Z21cmd_handler_0x1c_0x9EPhiPiPFvPciE
         w _Z21cmd_handler_0x1c_0x9FPhiPiPFvPciE
         w _Z21cmd_handler_0x1c_0xA0PhiPiPFvPciE
         w _Z21cmd_handler_0x1c_0xA1PhiPiPFvPciE
         w _Z21cmd_handler_0x1c_0xA2PhiPiPFvPciE
         w _Z21cmd_handler_0x1c_0xA3PhiPiPFvPciE
         w _Z21cmd_handler_0x1c_0xA4PhiPiPFvPciE
         w _Z21cmd_handler_0x1c_0xA5PhiPiPFvPciE
         w _Z21cmd_handler_0x1c_0xA6PhiPiPFvPciE
         w _Z21cmd_handler_0x1c_0xA7PhiPiPFvPciE
         w _Z21cmd_handler_0x1c_0xA8PhiPiPFvPciE
         w _Z21cmd_handler_0x1c_0xA9PhiPiPFvPciE
         w _Z21cmd_handler_0x1c_0xAAPhiPiPFvPciE
         w _Z21cmd_handler_0x1c_0xABPhiPiPFvPciE
         w _Z21cmd_handler_0x1c_0xACPhiPiPFvPciE
         w _Z21cmd_handler_0x1c_0xADPhiPiPFvPciE
         w _Z21cmd_handler_0x1c_0xAEPhiPiPFvPciE
         w _Z21cmd_handler_0x1c_0xAFPhiPiPFvPciE
         w _Z21cmd_handler_0x1c_0xB0PhiPiPFvPciE
         w _Z21cmd_handler_0x1c_0xB1PhiPiPFvPciE
         w _Z21cmd_handler_0x1c_0xB2PhiPiPFvPciE
         w _Z21cmd_handler_0x1c_0xB3PhiPiPFvPciE
         w _Z21cmd_handler_0x1c_0xB4PhiPiPFvPciE
         w _Z21cmd_handler_0x1c_0xB5PhiPiPFvPciE
         w _Z21cmd_handler_0x1c_0xB6PhiPiPFvPciE
         w _Z21cmd_handler_0x1c_0xB7PhiPiPFvPciE
         w _Z21cmd_handler_0x1c_0xB8PhiPiPFvPciE
         w _Z21cmd_handler_0x1c_0xB9PhiPiPFvPciE
         w _Z21cmd_handler_0x1c_0xBAPhiPiPFvPciE
         w _Z21cmd_handler_0x1c_0xBBPhiPiPFvPciE
         w _Z21cmd_handler_0x1c_0xBCPhiPiPFvPciE
         w _Z21cmd_handler_0x1c_0xBDPhiPiPFvPciE
         w _Z21cmd_handler_0x1c_0xBEPhiPiPFvPciE
         w _Z21cmd_handler_0x1c_0xBFPhiPiPFvPciE
         w _Z21cmd_handler_0x1c_0xC0PhiPiPFvPciE
         w _Z21cmd_handler_0x1c_0xC1PhiPiPFvPciE
         w _Z21cmd_handler_0x1c_0xC2PhiPiPFvPciE
         w _Z21cmd_handler_0x1c_0xC3PhiPiPFvPciE
         w _Z21cmd_handler_0x1c_0xC4PhiPiPFvPciE
         w _Z21cmd_handler_0x1c_0xC5PhiPiPFvPciE
         w _Z21cmd_handler_0x1c_0xC6PhiPiPFvPciE
         w _Z21cmd_handler_0x1c_0xC7PhiPiPFvPciE
         w _Z21cmd_handler_0x1c_0xC8PhiPiPFvPciE
         w _Z21cmd_handler_0x1c_0xC9PhiPiPFvPciE
         w _Z21cmd_handler_0x1c_0xCAPhiPiPFvPciE
         w _Z21cmd_handler_0x1c_0xCBPhiPiPFvPciE
         w _Z21cmd_handler_0x1c_0xCCPhiPiPFvPciE
         w _Z21cmd_handler_0x1c_0xCDPhiPiPFvPciE
         w _Z21cmd_handler_0x1c_0xCEPhiPiPFvPciE
         w _Z21cmd_handler_0x1c_0xCFPhiPiPFvPciE
         w _Z21cmd_handler_0x1c_0xD0PhiPiPFvPciE
         w _Z21cmd_handler_0x1c_0xD1PhiPiPFvPciE
         w _Z21cmd_handler_0x1c_0xD2PhiPiPFvPciE
         w _Z21cmd_handler_0x1c_0xD3PhiPiPFvPciE
         w _Z21cmd_handler_0x1c_0xD4PhiPiPFvPciE
         w _Z21cmd_handler_0x1c_0xD5PhiPiPFvPciE
         w _Z21cmd_handler_0x1c_0xD6PhiPiPFvPciE
         w _Z21cmd_handler_0x1c_0xD7PhiPiPFvPciE
         w _Z21cmd_handler_0x1c_0xD8PhiPiPFvPciE
         w _Z21cmd_handler_0x1c_0xD9PhiPiPFvPciE
         w _Z21cmd_handler_0x1c_0xDAPhiPiPFvPciE
         w _Z21cmd_handler_0x1c_0xDBPhiPiPFvPciE
         w _Z21cmd_handler_0x1c_0xDCPhiPiPFvPciE
         w _Z21cmd_handler_0x1c_0xDDPhiPiPFvPciE
         w _Z21cmd_handler_0x1c_0xDEPhiPiPFvPciE
         w _Z21cmd_handler_0x1c_0xDFPhiPiPFvPciE
         w _Z21cmd_handler_0x1c_0xE0PhiPiPFvPciE
         w _Z21cmd_handler_0x1c_0xE1PhiPiPFvPciE
         w _Z21cmd_handler_0x1c_0xE2PhiPiPFvPciE
         w _Z21cmd_handler_0x1c_0xE3PhiPiPFvPciE
         w _Z21cmd_handler_0x1c_0xE4PhiPiPFvPciE
         w _Z21cmd_handler_0x1c_0xE5PhiPiPFvPciE
         w _Z21cmd_handler_0x1c_0xE6PhiPiPFvPciE
         w _Z21cmd_handler_0x1c_0xE7PhiPiPFvPciE
         w _Z21cmd_handler_0x1c_0xE8PhiPiPFvPciE
         w _Z21cmd_handler_0x1c_0xE9PhiPiPFvPciE
         w _Z21cmd_handler_0x1c_0xEAPhiPiPFvPciE
         w _Z21cmd_handler_0x1c_0xEBPhiPiPFvPciE
         w _Z21cmd_handler_0x1c_0xECPhiPiPFvPciE
         w _Z21cmd_handler_0x1c_0xEDPhiPiPFvPciE
         w _Z21cmd_handler_0x1c_0xEEPhiPiPFvPciE
         w _Z21cmd_handler_0x1c_0xEFPhiPiPFvPciE
         w _Z21cmd_handler_0x1c_0xF0PhiPiPFvPciE
         w _Z21cmd_handler_0x1c_0xF1PhiPiPFvPciE
         w _Z21cmd_handler_0x1c_0xF2PhiPiPFvPciE
         w _Z21cmd_handler_0x1c_0xF3PhiPiPFvPciE
         w _Z21cmd_handler_0x1c_0xF4PhiPiPFvPciE
         w _Z21cmd_handler_0x1c_0xF5PhiPiPFvPciE
         w _Z21cmd_handler_0x1c_0xF6PhiPiPFvPciE
         w _Z21cmd_handler_0x1c_0xF7PhiPiPFvPciE
         w _Z21cmd_handler_0x1c_0xF8PhiPiPFvPciE
         w _Z21cmd_handler_0x1c_0xF9PhiPiPFvPciE
         w _Z21cmd_handler_0x1c_0xFAPhiPiPFvPciE
         w _Z21cmd_handler_0x1c_0xFBPhiPiPFvPciE
         w _Z21cmd_handler_0x1c_0xFCPhiPiPFvPciE
         w _Z21cmd_handler_0x1c_0xFDPhiPiPFvPciE
         w _Z21cmd_handler_0x1c_0xFEPhiPiPFvPciE
         w _Z21cmd_handler_0x1c_0xFFPhiPiPFvPciE
         w _Z21cmd_handler_0x1d_0x00PhiPiPFvPciE
         w _Z21cmd_handler_0x1d_0x01PhiPiPFvPciE
         w _Z21cmd_handler_0x1d_0x02PhiPiPFvPciE
         w _Z21cmd_handler_0x1d_0x03PhiPiPFvPciE
         w _Z21cmd_handler_0x1d_0x04PhiPiPFvPciE
         w _Z21cmd_handler_0x1d_0x05PhiPiPFvPciE
         w _Z21cmd_handler_0x1d_0x06PhiPiPFvPciE
         w _Z21cmd_handler_0x1d_0x07PhiPiPFvPciE
         w _Z21cmd_handler_0x1d_0x08PhiPiPFvPciE
         w _Z21cmd_handler_0x1d_0x09PhiPiPFvPciE
         w _Z21cmd_handler_0x1d_0x0APhiPiPFvPciE
         w _Z21cmd_handler_0x1d_0x0BPhiPiPFvPciE
         w _Z21cmd_handler_0x1d_0x0CPhiPiPFvPciE
         w _Z21cmd_handler_0x1d_0x0DPhiPiPFvPciE
         w _Z21cmd_handler_0x1d_0x0EPhiPiPFvPciE
         w _Z21cmd_handler_0x1d_0x0FPhiPiPFvPciE
         w _Z21cmd_handler_0x1d_0x10PhiPiPFvPciE
         w _Z21cmd_handler_0x1d_0x11PhiPiPFvPciE
         w _Z21cmd_handler_0x1d_0x12PhiPiPFvPciE
         w _Z21cmd_handler_0x1d_0x13PhiPiPFvPciE
         w _Z21cmd_handler_0x1d_0x14PhiPiPFvPciE
         w _Z21cmd_handler_0x1d_0x15PhiPiPFvPciE
         w _Z21cmd_handler_0x1d_0x16PhiPiPFvPciE
         w _Z21cmd_handler_0x1d_0x17PhiPiPFvPciE
         w _Z21cmd_handler_0x1d_0x18PhiPiPFvPciE
         w _Z21cmd_handler_0x1d_0x19PhiPiPFvPciE
         w _Z21cmd_handler_0x1d_0x1APhiPiPFvPciE
         w _Z21cmd_handler_0x1d_0x1BPhiPiPFvPciE
         w _Z21cmd_handler_0x1d_0x1CPhiPiPFvPciE
         w _Z21cmd_handler_0x1d_0x1DPhiPiPFvPciE
         w _Z21cmd_handler_0x1d_0x1EPhiPiPFvPciE
         w _Z21cmd_handler_0x1d_0x1FPhiPiPFvPciE
         w _Z21cmd_handler_0x1d_0x20PhiPiPFvPciE
         w _Z21cmd_handler_0x1d_0x21PhiPiPFvPciE
         w _Z21cmd_handler_0x1d_0x22PhiPiPFvPciE
         w _Z21cmd_handler_0x1d_0x23PhiPiPFvPciE
         w _Z21cmd_handler_0x1d_0x24PhiPiPFvPciE
         w _Z21cmd_handler_0x1d_0x25PhiPiPFvPciE
         w _Z21cmd_handler_0x1d_0x26PhiPiPFvPciE
         w _Z21cmd_handler_0x1d_0x27PhiPiPFvPciE
         w _Z21cmd_handler_0x1d_0x28PhiPiPFvPciE
         w _Z21cmd_handler_0x1d_0x29PhiPiPFvPciE
         w _Z21cmd_handler_0x1d_0x2APhiPiPFvPciE
         w _Z21cmd_handler_0x1d_0x2BPhiPiPFvPciE
         w _Z21cmd_handler_0x1d_0x2CPhiPiPFvPciE
         w _Z21cmd_handler_0x1d_0x2DPhiPiPFvPciE
         w _Z21cmd_handler_0x1d_0x2EPhiPiPFvPciE
         w _Z21cmd_handler_0x1d_0x2FPhiPiPFvPciE
         w _Z21cmd_handler_0x1d_0x30PhiPiPFvPciE
         w _Z21cmd_handler_0x1d_0x31PhiPiPFvPciE
         w _Z21cmd_handler_0x1d_0x32PhiPiPFvPciE
         w _Z21cmd_handler_0x1d_0x33PhiPiPFvPciE
         w _Z21cmd_handler_0x1d_0x34PhiPiPFvPciE
         w _Z21cmd_handler_0x1d_0x35PhiPiPFvPciE
         w _Z21cmd_handler_0x1d_0x36PhiPiPFvPciE
         w _Z21cmd_handler_0x1d_0x37PhiPiPFvPciE
         w _Z21cmd_handler_0x1d_0x38PhiPiPFvPciE
         w _Z21cmd_handler_0x1d_0x39PhiPiPFvPciE
         w _Z21cmd_handler_0x1d_0x3APhiPiPFvPciE
         w _Z21cmd_handler_0x1d_0x3BPhiPiPFvPciE
         w _Z21cmd_handler_0x1d_0x3CPhiPiPFvPciE
         w _Z21cmd_handler_0x1d_0x3DPhiPiPFvPciE
         w _Z21cmd_handler_0x1d_0x3EPhiPiPFvPciE
         w _Z21cmd_handler_0x1d_0x3FPhiPiPFvPciE
         w _Z21cmd_handler_0x1d_0x40PhiPiPFvPciE
         w _Z21cmd_handler_0x1d_0x41PhiPiPFvPciE
         w _Z21cmd_handler_0x1d_0x42PhiPiPFvPciE
         w _Z21cmd_handler_0x1d_0x43PhiPiPFvPciE
         w _Z21cmd_handler_0x1d_0x44PhiPiPFvPciE
         w _Z21cmd_handler_0x1d_0x45PhiPiPFvPciE
         w _Z21cmd_handler_0x1d_0x46PhiPiPFvPciE
         w _Z21cmd_handler_0x1d_0x47PhiPiPFvPciE
         w _Z21cmd_handler_0x1d_0x48PhiPiPFvPciE
         w _Z21cmd_handler_0x1d_0x49PhiPiPFvPciE
         w _Z21cmd_handler_0x1d_0x4APhiPiPFvPciE
         w _Z21cmd_handler_0x1d_0x4BPhiPiPFvPciE
         w _Z21cmd_handler_0x1d_0x4CPhiPiPFvPciE
         w _Z21cmd_handler_0x1d_0x4DPhiPiPFvPciE
         w _Z21cmd_handler_0x1d_0x4EPhiPiPFvPciE
         w _Z21cmd_handler_0x1d_0x4FPhiPiPFvPciE
         w _Z21cmd_handler_0x1d_0x50PhiPiPFvPciE
         w _Z21cmd_handler_0x1d_0x51PhiPiPFvPciE
         w _Z21cmd_handler_0x1d_0x52PhiPiPFvPciE
         w _Z21cmd_handler_0x1d_0x53PhiPiPFvPciE
         w _Z21cmd_handler_0x1d_0x54PhiPiPFvPciE
         w _Z21cmd_handler_0x1d_0x55PhiPiPFvPciE
         w _Z21cmd_handler_0x1d_0x56PhiPiPFvPciE
         w _Z21cmd_handler_0x1d_0x57PhiPiPFvPciE
         w _Z21cmd_handler_0x1d_0x58PhiPiPFvPciE
         w _Z21cmd_handler_0x1d_0x59PhiPiPFvPciE
         w _Z21cmd_handler_0x1d_0x5APhiPiPFvPciE
         w _Z21cmd_handler_0x1d_0x5BPhiPiPFvPciE
         w _Z21cmd_handler_0x1d_0x5CPhiPiPFvPciE
         w _Z21cmd_handler_0x1d_0x5DPhiPiPFvPciE
         w _Z21cmd_handler_0x1d_0x5EPhiPiPFvPciE
         w _Z21cmd_handler_0x1d_0x5FPhiPiPFvPciE
         w _Z21cmd_handler_0x1d_0x60PhiPiPFvPciE
         w _Z21cmd_handler_0x1d_0x61PhiPiPFvPciE
         w _Z21cmd_handler_0x1d_0x62PhiPiPFvPciE
         w _Z21cmd_handler_0x1d_0x63PhiPiPFvPciE
         w _Z21cmd_handler_0x1d_0x64PhiPiPFvPciE
         w _Z21cmd_handler_0x1d_0x65PhiPiPFvPciE
         w _Z21cmd_handler_0x1d_0x66PhiPiPFvPciE
         w _Z21cmd_handler_0x1d_0x67PhiPiPFvPciE
         w _Z21cmd_handler_0x1d_0x68PhiPiPFvPciE
         w _Z21cmd_handler_0x1d_0x69PhiPiPFvPciE
         w _Z21cmd_handler_0x1d_0x6APhiPiPFvPciE
         w _Z21cmd_handler_0x1d_0x6BPhiPiPFvPciE
         w _Z21cmd_handler_0x1d_0x6CPhiPiPFvPciE
         w _Z21cmd_handler_0x1d_0x6DPhiPiPFvPciE
         w _Z21cmd_handler_0x1d_0x6EPhiPiPFvPciE
         w _Z21cmd_handler_0x1d_0x6FPhiPiPFvPciE
         w _Z21cmd_handler_0x1d_0x70PhiPiPFvPciE
         w _Z21cmd_handler_0x1d_0x71PhiPiPFvPciE
         w _Z21cmd_handler_0x1d_0x72PhiPiPFvPciE
         w _Z21cmd_handler_0x1d_0x73PhiPiPFvPciE
         w _Z21cmd_handler_0x1d_0x74PhiPiPFvPciE
         w _Z21cmd_handler_0x1d_0x75PhiPiPFvPciE
         w _Z21cmd_handler_0x1d_0x76PhiPiPFvPciE
         w _Z21cmd_handler_0x1d_0x77PhiPiPFvPciE
         w _Z21cmd_handler_0x1d_0x78PhiPiPFvPciE
         w _Z21cmd_handler_0x1d_0x79PhiPiPFvPciE
         w _Z21cmd_handler_0x1d_0x7APhiPiPFvPciE
         w _Z21cmd_handler_0x1d_0x7BPhiPiPFvPciE
         w _Z21cmd_handler_0x1d_0x7CPhiPiPFvPciE
         w _Z21cmd_handler_0x1d_0x7DPhiPiPFvPciE
         w _Z21cmd_handler_0x1d_0x7EPhiPiPFvPciE
         w _Z21cmd_handler_0x1d_0x7FPhiPiPFvPciE
         w _Z21cmd_handler_0x1d_0x80PhiPiPFvPciE
         w _Z21cmd_handler_0x1d_0x81PhiPiPFvPciE
         w _Z21cmd_handler_0x1d_0x82PhiPiPFvPciE
         w _Z21cmd_handler_0x1d_0x83PhiPiPFvPciE
         w _Z21cmd_handler_0x1d_0x84PhiPiPFvPciE
         w _Z21cmd_handler_0x1d_0x85PhiPiPFvPciE
         w _Z21cmd_handler_0x1d_0x86PhiPiPFvPciE
         w _Z21cmd_handler_0x1d_0x87PhiPiPFvPciE
         w _Z21cmd_handler_0x1d_0x88PhiPiPFvPciE
         w _Z21cmd_handler_0x1d_0x89PhiPiPFvPciE
         w _Z21cmd_handler_0x1d_0x8APhiPiPFvPciE
         w _Z21cmd_handler_0x1d_0x8BPhiPiPFvPciE
         w _Z21cmd_handler_0x1d_0x8CPhiPiPFvPciE
         w _Z21cmd_handler_0x1d_0x8DPhiPiPFvPciE
         w _Z21cmd_handler_0x1d_0x8EPhiPiPFvPciE
         w _Z21cmd_handler_0x1d_0x8FPhiPiPFvPciE
         w _Z21cmd_handler_0x1d_0x90PhiPiPFvPciE
         w _Z21cmd_handler_0x1d_0x91PhiPiPFvPciE
         w _Z21cmd_handler_0x1d_0x92PhiPiPFvPciE
         w _Z21cmd_handler_0x1d_0x93PhiPiPFvPciE
         w _Z21cmd_handler_0x1d_0x94PhiPiPFvPciE
         w _Z21cmd_handler_0x1d_0x95PhiPiPFvPciE
         w _Z21cmd_handler_0x1d_0x96PhiPiPFvPciE
         w _Z21cmd_handler_0x1d_0x97PhiPiPFvPciE
         w _Z21cmd_handler_0x1d_0x98PhiPiPFvPciE
         w _Z21cmd_handler_0x1d_0x99PhiPiPFvPciE
         w _Z21cmd_handler_0x1d_0x9APhiPiPFvPciE
         w _Z21cmd_handler_0x1d_0x9BPhiPiPFvPciE
         w _Z21cmd_handler_0x1d_0x9CPhiPiPFvPciE
         w _Z21cmd_handler_0x1d_0x9DPhiPiPFvPciE
         w _Z21cmd_handler_0x1d_0x9EPhiPiPFvPciE
         w _Z21cmd_handler_0x1d_0x9FPhiPiPFvPciE
         w _Z21cmd_handler_0x1d_0xA0PhiPiPFvPciE
         w _Z21cmd_handler_0x1d_0xA1PhiPiPFvPciE
         w _Z21cmd_handler_0x1d_0xA2PhiPiPFvPciE
         w _Z21cmd_handler_0x1d_0xA3PhiPiPFvPciE
         w _Z21cmd_handler_0x1d_0xA4PhiPiPFvPciE
         w _Z21cmd_handler_0x1d_0xA5PhiPiPFvPciE
         w _Z21cmd_handler_0x1d_0xA6PhiPiPFvPciE
         w _Z21cmd_handler_0x1d_0xA7PhiPiPFvPciE
         w _Z21cmd_handler_0x1d_0xA8PhiPiPFvPciE
         w _Z21cmd_handler_0x1d_0xA9PhiPiPFvPciE
         w _Z21cmd_handler_0x1d_0xAAPhiPiPFvPciE
         w _Z21cmd_handler_0x1d_0xABPhiPiPFvPciE
         w _Z21cmd_handler_0x1d_0xACPhiPiPFvPciE
         w _Z21cmd_handler_0x1d_0xADPhiPiPFvPciE
         w _Z21cmd_handler_0x1d_0xAEPhiPiPFvPciE
         w _Z21cmd_handler_0x1d_0xAFPhiPiPFvPciE
         w _Z21cmd_handler_0x1d_0xB0PhiPiPFvPciE
         w _Z21cmd_handler_0x1d_0xB1PhiPiPFvPciE
         w _Z21cmd_handler_0x1d_0xB2PhiPiPFvPciE
         w _Z21cmd_handler_0x1d_0xB3PhiPiPFvPciE
         w _Z21cmd_handler_0x1d_0xB4PhiPiPFvPciE
         w _Z21cmd_handler_0x1d_0xB5PhiPiPFvPciE
         w _Z21cmd_handler_0x1d_0xB6PhiPiPFvPciE
         w _Z21cmd_handler_0x1d_0xB7PhiPiPFvPciE
         w _Z21cmd_handler_0x1d_0xB8PhiPiPFvPciE
         w _Z21cmd_handler_0x1d_0xB9PhiPiPFvPciE
         w _Z21cmd_handler_0x1d_0xBAPhiPiPFvPciE
         w _Z21cmd_handler_0x1d_0xBBPhiPiPFvPciE
         w _Z21cmd_handler_0x1d_0xBCPhiPiPFvPciE
         w _Z21cmd_handler_0x1d_0xBDPhiPiPFvPciE
         w _Z21cmd_handler_0x1d_0xBEPhiPiPFvPciE
         w _Z21cmd_handler_0x1d_0xBFPhiPiPFvPciE
         w _Z21cmd_handler_0x1d_0xC0PhiPiPFvPciE
         w _Z21cmd_handler_0x1d_0xC1PhiPiPFvPciE
         w _Z21cmd_handler_0x1d_0xC2PhiPiPFvPciE
         w _Z21cmd_handler_0x1d_0xC3PhiPiPFvPciE
         w _Z21cmd_handler_0x1d_0xC4PhiPiPFvPciE
         w _Z21cmd_handler_0x1d_0xC5PhiPiPFvPciE
         w _Z21cmd_handler_0x1d_0xC6PhiPiPFvPciE
         w _Z21cmd_handler_0x1d_0xC7PhiPiPFvPciE
         w _Z21cmd_handler_0x1d_0xC8PhiPiPFvPciE
         w _Z21cmd_handler_0x1d_0xC9PhiPiPFvPciE
         w _Z21cmd_handler_0x1d_0xCAPhiPiPFvPciE
         w _Z21cmd_handler_0x1d_0xCBPhiPiPFvPciE
         w _Z21cmd_handler_0x1d_0xCCPhiPiPFvPciE
         w _Z21cmd_handler_0x1d_0xCDPhiPiPFvPciE
         w _Z21cmd_handler_0x1d_0xCEPhiPiPFvPciE
         w _Z21cmd_handler_0x1d_0xCFPhiPiPFvPciE
         w _Z21cmd_handler_0x1d_0xD0PhiPiPFvPciE
         w _Z21cmd_handler_0x1d_0xD1PhiPiPFvPciE
         w _Z21cmd_handler_0x1d_0xD2PhiPiPFvPciE
         w _Z21cmd_handler_0x1d_0xD3PhiPiPFvPciE
         w _Z21cmd_handler_0x1d_0xD4PhiPiPFvPciE
         w _Z21cmd_handler_0x1d_0xD5PhiPiPFvPciE
         w _Z21cmd_handler_0x1d_0xD6PhiPiPFvPciE
         w _Z21cmd_handler_0x1d_0xD7PhiPiPFvPciE
         w _Z21cmd_handler_0x1d_0xD8PhiPiPFvPciE
         w _Z21cmd_handler_0x1d_0xD9PhiPiPFvPciE
         w _Z21cmd_handler_0x1d_0xDAPhiPiPFvPciE
         w _Z21cmd_handler_0x1d_0xDBPhiPiPFvPciE
         w _Z21cmd_handler_0x1d_0xDCPhiPiPFvPciE
         w _Z21cmd_handler_0x1d_0xDDPhiPiPFvPciE
         w _Z21cmd_handler_0x1d_0xDEPhiPiPFvPciE
         w _Z21cmd_handler_0x1d_0xDFPhiPiPFvPciE
         w _Z21cmd_handler_0x1d_0xE0PhiPiPFvPciE
         w _Z21cmd_handler_0x1d_0xE1PhiPiPFvPciE
         w _Z21cmd_handler_0x1d_0xE2PhiPiPFvPciE
         w _Z21cmd_handler_0x1d_0xE3PhiPiPFvPciE
         w _Z21cmd_handler_0x1d_0xE4PhiPiPFvPciE
         w _Z21cmd_handler_0x1d_0xE5PhiPiPFvPciE
         w _Z21cmd_handler_0x1d_0xE6PhiPiPFvPciE
         w _Z21cmd_handler_0x1d_0xE7PhiPiPFvPciE
         w _Z21cmd_handler_0x1d_0xE8PhiPiPFvPciE
         w _Z21cmd_handler_0x1d_0xE9PhiPiPFvPciE
         w _Z21cmd_handler_0x1d_0xEAPhiPiPFvPciE
         w _Z21cmd_handler_0x1d_0xEBPhiPiPFvPciE
         w _Z21cmd_handler_0x1d_0xECPhiPiPFvPciE
         w _Z21cmd_handler_0x1d_0xEDPhiPiPFvPciE
         w _Z21cmd_handler_0x1d_0xEEPhiPiPFvPciE
         w _Z21cmd_handler_0x1d_0xEFPhiPiPFvPciE
         w _Z21cmd_handler_0x1d_0xF0PhiPiPFvPciE
         w _Z21cmd_handler_0x1d_0xF1PhiPiPFvPciE
         w _Z21cmd_handler_0x1d_0xF2PhiPiPFvPciE
         w _Z21cmd_handler_0x1d_0xF3PhiPiPFvPciE
         w _Z21cmd_handler_0x1d_0xF4PhiPiPFvPciE
         w _Z21cmd_handler_0x1d_0xF5PhiPiPFvPciE
         w _Z21cmd_handler_0x1d_0xF6PhiPiPFvPciE
         w _Z21cmd_handler_0x1d_0xF7PhiPiPFvPciE
         w _Z21cmd_handler_0x1d_0xF8PhiPiPFvPciE
         w _Z21cmd_handler_0x1d_0xF9PhiPiPFvPciE
         w _Z21cmd_handler_0x1d_0xFAPhiPiPFvPciE
         w _Z21cmd_handler_0x1d_0xFBPhiPiPFvPciE
         w _Z21cmd_handler_0x1d_0xFCPhiPiPFvPciE
         w _Z21cmd_handler_0x1d_0xFDPhiPiPFvPciE
         w _Z21cmd_handler_0x1d_0xFEPhiPiPFvPciE
         w _Z21cmd_handler_0x1d_0xFFPhiPiPFvPciE
         w _Z21cmd_handler_0x1e_0x00PhiPiPFvPciE
         w _Z21cmd_handler_0x1e_0x01PhiPiPFvPciE
         w _Z21cmd_handler_0x1e_0x02PhiPiPFvPciE
         w _Z21cmd_handler_0x1e_0x03PhiPiPFvPciE
         w _Z21cmd_handler_0x1e_0x04PhiPiPFvPciE
         w _Z21cmd_handler_0x1e_0x05PhiPiPFvPciE
         w _Z21cmd_handler_0x1e_0x06PhiPiPFvPciE
         w _Z21cmd_handler_0x1e_0x07PhiPiPFvPciE
         w _Z21cmd_handler_0x1e_0x08PhiPiPFvPciE
         w _Z21cmd_handler_0x1e_0x09PhiPiPFvPciE
         w _Z21cmd_handler_0x1e_0x0APhiPiPFvPciE
         w _Z21cmd_handler_0x1e_0x0BPhiPiPFvPciE
         w _Z21cmd_handler_0x1e_0x0CPhiPiPFvPciE
         w _Z21cmd_handler_0x1e_0x0DPhiPiPFvPciE
         w _Z21cmd_handler_0x1e_0x0EPhiPiPFvPciE
         w _Z21cmd_handler_0x1e_0x0FPhiPiPFvPciE
         w _Z21cmd_handler_0x1e_0x10PhiPiPFvPciE
         w _Z21cmd_handler_0x1e_0x11PhiPiPFvPciE
         w _Z21cmd_handler_0x1e_0x12PhiPiPFvPciE
         w _Z21cmd_handler_0x1e_0x13PhiPiPFvPciE
         w _Z21cmd_handler_0x1e_0x14PhiPiPFvPciE
         w _Z21cmd_handler_0x1e_0x15PhiPiPFvPciE
         w _Z21cmd_handler_0x1e_0x16PhiPiPFvPciE
         w _Z21cmd_handler_0x1e_0x17PhiPiPFvPciE
         w _Z21cmd_handler_0x1e_0x18PhiPiPFvPciE
         w _Z21cmd_handler_0x1e_0x19PhiPiPFvPciE
         w _Z21cmd_handler_0x1e_0x1APhiPiPFvPciE
         w _Z21cmd_handler_0x1e_0x1BPhiPiPFvPciE
         w _Z21cmd_handler_0x1e_0x1CPhiPiPFvPciE
         w _Z21cmd_handler_0x1e_0x1DPhiPiPFvPciE
         w _Z21cmd_handler_0x1e_0x1EPhiPiPFvPciE
         w _Z21cmd_handler_0x1e_0x1FPhiPiPFvPciE
         w _Z21cmd_handler_0x1e_0x20PhiPiPFvPciE
         w _Z21cmd_handler_0x1e_0x21PhiPiPFvPciE
         w _Z21cmd_handler_0x1e_0x22PhiPiPFvPciE
         w _Z21cmd_handler_0x1e_0x23PhiPiPFvPciE
         w _Z21cmd_handler_0x1e_0x24PhiPiPFvPciE
         w _Z21cmd_handler_0x1e_0x25PhiPiPFvPciE
         w _Z21cmd_handler_0x1e_0x26PhiPiPFvPciE
         w _Z21cmd_handler_0x1e_0x27PhiPiPFvPciE
         w _Z21cmd_handler_0x1e_0x28PhiPiPFvPciE
         w _Z21cmd_handler_0x1e_0x29PhiPiPFvPciE
         w _Z21cmd_handler_0x1e_0x2APhiPiPFvPciE
         w _Z21cmd_handler_0x1e_0x2BPhiPiPFvPciE
         w _Z21cmd_handler_0x1e_0x2CPhiPiPFvPciE
         w _Z21cmd_handler_0x1e_0x2DPhiPiPFvPciE
         w _Z21cmd_handler_0x1e_0x2EPhiPiPFvPciE
         w _Z21cmd_handler_0x1e_0x2FPhiPiPFvPciE
         w _Z21cmd_handler_0x1e_0x30PhiPiPFvPciE
         w _Z21cmd_handler_0x1e_0x31PhiPiPFvPciE
         w _Z21cmd_handler_0x1e_0x32PhiPiPFvPciE
         w _Z21cmd_handler_0x1e_0x33PhiPiPFvPciE
         w _Z21cmd_handler_0x1e_0x34PhiPiPFvPciE
         w _Z21cmd_handler_0x1e_0x35PhiPiPFvPciE
         w _Z21cmd_handler_0x1e_0x36PhiPiPFvPciE
         w _Z21cmd_handler_0x1e_0x37PhiPiPFvPciE
         w _Z21cmd_handler_0x1e_0x38PhiPiPFvPciE
         w _Z21cmd_handler_0x1e_0x39PhiPiPFvPciE
         w _Z21cmd_handler_0x1e_0x3APhiPiPFvPciE
         w _Z21cmd_handler_0x1e_0x3BPhiPiPFvPciE
         w _Z21cmd_handler_0x1e_0x3CPhiPiPFvPciE
         w _Z21cmd_handler_0x1e_0x3DPhiPiPFvPciE
         w _Z21cmd_handler_0x1e_0x3EPhiPiPFvPciE
         w _Z21cmd_handler_0x1e_0x3FPhiPiPFvPciE
         w _Z21cmd_handler_0x1e_0x40PhiPiPFvPciE
         w _Z21cmd_handler_0x1e_0x41PhiPiPFvPciE
         w _Z21cmd_handler_0x1e_0x42PhiPiPFvPciE
         w _Z21cmd_handler_0x1e_0x43PhiPiPFvPciE
         w _Z21cmd_handler_0x1e_0x44PhiPiPFvPciE
         w _Z21cmd_handler_0x1e_0x45PhiPiPFvPciE
         w _Z21cmd_handler_0x1e_0x46PhiPiPFvPciE
         w _Z21cmd_handler_0x1e_0x47PhiPiPFvPciE
         w _Z21cmd_handler_0x1e_0x48PhiPiPFvPciE
         w _Z21cmd_handler_0x1e_0x49PhiPiPFvPciE
         w _Z21cmd_handler_0x1e_0x4APhiPiPFvPciE
         w _Z21cmd_handler_0x1e_0x4BPhiPiPFvPciE
         w _Z21cmd_handler_0x1e_0x4CPhiPiPFvPciE
         w _Z21cmd_handler_0x1e_0x4DPhiPiPFvPciE
         w _Z21cmd_handler_0x1e_0x4EPhiPiPFvPciE
         w _Z21cmd_handler_0x1e_0x4FPhiPiPFvPciE
         w _Z21cmd_handler_0x1e_0x50PhiPiPFvPciE
         w _Z21cmd_handler_0x1e_0x51PhiPiPFvPciE
         w _Z21cmd_handler_0x1e_0x52PhiPiPFvPciE
         w _Z21cmd_handler_0x1e_0x53PhiPiPFvPciE
         w _Z21cmd_handler_0x1e_0x54PhiPiPFvPciE
         w _Z21cmd_handler_0x1e_0x55PhiPiPFvPciE
         w _Z21cmd_handler_0x1e_0x56PhiPiPFvPciE
         w _Z21cmd_handler_0x1e_0x57PhiPiPFvPciE
         w _Z21cmd_handler_0x1e_0x58PhiPiPFvPciE
         w _Z21cmd_handler_0x1e_0x59PhiPiPFvPciE
         w _Z21cmd_handler_0x1e_0x5APhiPiPFvPciE
         w _Z21cmd_handler_0x1e_0x5BPhiPiPFvPciE
         w _Z21cmd_handler_0x1e_0x5CPhiPiPFvPciE
         w _Z21cmd_handler_0x1e_0x5DPhiPiPFvPciE
         w _Z21cmd_handler_0x1e_0x5EPhiPiPFvPciE
         w _Z21cmd_handler_0x1e_0x5FPhiPiPFvPciE
         w _Z21cmd_handler_0x1e_0x60PhiPiPFvPciE
         w _Z21cmd_handler_0x1e_0x61PhiPiPFvPciE
         w _Z21cmd_handler_0x1e_0x62PhiPiPFvPciE
         w _Z21cmd_handler_0x1e_0x63PhiPiPFvPciE
         w _Z21cmd_handler_0x1e_0x64PhiPiPFvPciE
         w _Z21cmd_handler_0x1e_0x65PhiPiPFvPciE
         w _Z21cmd_handler_0x1e_0x66PhiPiPFvPciE
         w _Z21cmd_handler_0x1e_0x67PhiPiPFvPciE
         w _Z21cmd_handler_0x1e_0x68PhiPiPFvPciE
         w _Z21cmd_handler_0x1e_0x69PhiPiPFvPciE
         w _Z21cmd_handler_0x1e_0x6APhiPiPFvPciE
         w _Z21cmd_handler_0x1e_0x6BPhiPiPFvPciE
         w _Z21cmd_handler_0x1e_0x6CPhiPiPFvPciE
         w _Z21cmd_handler_0x1e_0x6DPhiPiPFvPciE
         w _Z21cmd_handler_0x1e_0x6EPhiPiPFvPciE
         w _Z21cmd_handler_0x1e_0x6FPhiPiPFvPciE
         w _Z21cmd_handler_0x1e_0x70PhiPiPFvPciE
         w _Z21cmd_handler_0x1e_0x71PhiPiPFvPciE
         w _Z21cmd_handler_0x1e_0x72PhiPiPFvPciE
         w _Z21cmd_handler_0x1e_0x73PhiPiPFvPciE
         w _Z21cmd_handler_0x1e_0x74PhiPiPFvPciE
         w _Z21cmd_handler_0x1e_0x75PhiPiPFvPciE
         w _Z21cmd_handler_0x1e_0x76PhiPiPFvPciE
         w _Z21cmd_handler_0x1e_0x77PhiPiPFvPciE
         w _Z21cmd_handler_0x1e_0x78PhiPiPFvPciE
         w _Z21cmd_handler_0x1e_0x79PhiPiPFvPciE
         w _Z21cmd_handler_0x1e_0x7APhiPiPFvPciE
         w _Z21cmd_handler_0x1e_0x7BPhiPiPFvPciE
         w _Z21cmd_handler_0x1e_0x7CPhiPiPFvPciE
         w _Z21cmd_handler_0x1e_0x7DPhiPiPFvPciE
         w _Z21cmd_handler_0x1e_0x7EPhiPiPFvPciE
         w _Z21cmd_handler_0x1e_0x7FPhiPiPFvPciE
         w _Z21cmd_handler_0x1e_0x80PhiPiPFvPciE
         w _Z21cmd_handler_0x1e_0x81PhiPiPFvPciE
         w _Z21cmd_handler_0x1e_0x82PhiPiPFvPciE
         w _Z21cmd_handler_0x1e_0x83PhiPiPFvPciE
         w _Z21cmd_handler_0x1e_0x84PhiPiPFvPciE
         w _Z21cmd_handler_0x1e_0x85PhiPiPFvPciE
         w _Z21cmd_handler_0x1e_0x86PhiPiPFvPciE
         w _Z21cmd_handler_0x1e_0x87PhiPiPFvPciE
         w _Z21cmd_handler_0x1e_0x88PhiPiPFvPciE
         w _Z21cmd_handler_0x1e_0x89PhiPiPFvPciE
         w _Z21cmd_handler_0x1e_0x8APhiPiPFvPciE
         w _Z21cmd_handler_0x1e_0x8BPhiPiPFvPciE
         w _Z21cmd_handler_0x1e_0x8CPhiPiPFvPciE
         w _Z21cmd_handler_0x1e_0x8DPhiPiPFvPciE
         w _Z21cmd_handler_0x1e_0x8EPhiPiPFvPciE
         w _Z21cmd_handler_0x1e_0x8FPhiPiPFvPciE
         w _Z21cmd_handler_0x1e_0x90PhiPiPFvPciE
         w _Z21cmd_handler_0x1e_0x91PhiPiPFvPciE
         w _Z21cmd_handler_0x1e_0x92PhiPiPFvPciE
         w _Z21cmd_handler_0x1e_0x93PhiPiPFvPciE
         w _Z21cmd_handler_0x1e_0x94PhiPiPFvPciE
         w _Z21cmd_handler_0x1e_0x95PhiPiPFvPciE
         w _Z21cmd_handler_0x1e_0x96PhiPiPFvPciE
         w _Z21cmd_handler_0x1e_0x97PhiPiPFvPciE
         w _Z21cmd_handler_0x1e_0x98PhiPiPFvPciE
         w _Z21cmd_handler_0x1e_0x99PhiPiPFvPciE
         w _Z21cmd_handler_0x1e_0x9APhiPiPFvPciE
         w _Z21cmd_handler_0x1e_0x9BPhiPiPFvPciE
         w _Z21cmd_handler_0x1e_0x9CPhiPiPFvPciE
         w _Z21cmd_handler_0x1e_0x9DPhiPiPFvPciE
         w _Z21cmd_handler_0x1e_0x9EPhiPiPFvPciE
         w _Z21cmd_handler_0x1e_0x9FPhiPiPFvPciE
         w _Z21cmd_handler_0x1e_0xA0PhiPiPFvPciE
         w _Z21cmd_handler_0x1e_0xA1PhiPiPFvPciE
         w _Z21cmd_handler_0x1e_0xA2PhiPiPFvPciE
         w _Z21cmd_handler_0x1e_0xA3PhiPiPFvPciE
         w _Z21cmd_handler_0x1e_0xA4PhiPiPFvPciE
         w _Z21cmd_handler_0x1e_0xA5PhiPiPFvPciE
         w _Z21cmd_handler_0x1e_0xA6PhiPiPFvPciE
         w _Z21cmd_handler_0x1e_0xA7PhiPiPFvPciE
         w _Z21cmd_handler_0x1e_0xA8PhiPiPFvPciE
         w _Z21cmd_handler_0x1e_0xA9PhiPiPFvPciE
         w _Z21cmd_handler_0x1e_0xAAPhiPiPFvPciE
         w _Z21cmd_handler_0x1e_0xABPhiPiPFvPciE
         w _Z21cmd_handler_0x1e_0xACPhiPiPFvPciE
         w _Z21cmd_handler_0x1e_0xADPhiPiPFvPciE
         w _Z21cmd_handler_0x1e_0xAEPhiPiPFvPciE
         w _Z21cmd_handler_0x1e_0xAFPhiPiPFvPciE
         w _Z21cmd_handler_0x1e_0xB0PhiPiPFvPciE
         w _Z21cmd_handler_0x1e_0xB1PhiPiPFvPciE
         w _Z21cmd_handler_0x1e_0xB2PhiPiPFvPciE
         w _Z21cmd_handler_0x1e_0xB3PhiPiPFvPciE
         w _Z21cmd_handler_0x1e_0xB4PhiPiPFvPciE
         w _Z21cmd_handler_0x1e_0xB5PhiPiPFvPciE
         w _Z21cmd_handler_0x1e_0xB6PhiPiPFvPciE
         w _Z21cmd_handler_0x1e_0xB7PhiPiPFvPciE
         w _Z21cmd_handler_0x1e_0xB8PhiPiPFvPciE
         w _Z21cmd_handler_0x1e_0xB9PhiPiPFvPciE
         w _Z21cmd_handler_0x1e_0xBAPhiPiPFvPciE
         w _Z21cmd_handler_0x1e_0xBBPhiPiPFvPciE
         w _Z21cmd_handler_0x1e_0xBCPhiPiPFvPciE
         w _Z21cmd_handler_0x1e_0xBDPhiPiPFvPciE
         w _Z21cmd_handler_0x1e_0xBEPhiPiPFvPciE
         w _Z21cmd_handler_0x1e_0xBFPhiPiPFvPciE
         w _Z21cmd_handler_0x1e_0xC0PhiPiPFvPciE
         w _Z21cmd_handler_0x1e_0xC1PhiPiPFvPciE
         w _Z21cmd_handler_0x1e_0xC2PhiPiPFvPciE
         w _Z21cmd_handler_0x1e_0xC3PhiPiPFvPciE
         w _Z21cmd_handler_0x1e_0xC4PhiPiPFvPciE
         w _Z21cmd_handler_0x1e_0xC5PhiPiPFvPciE
         w _Z21cmd_handler_0x1e_0xC6PhiPiPFvPciE
         w _Z21cmd_handler_0x1e_0xC7PhiPiPFvPciE
         w _Z21cmd_handler_0x1e_0xC8PhiPiPFvPciE
         w _Z21cmd_handler_0x1e_0xC9PhiPiPFvPciE
         w _Z21cmd_handler_0x1e_0xCAPhiPiPFvPciE
         w _Z21cmd_handler_0x1e_0xCBPhiPiPFvPciE
         w _Z21cmd_handler_0x1e_0xCCPhiPiPFvPciE
         w _Z21cmd_handler_0x1e_0xCDPhiPiPFvPciE
         w _Z21cmd_handler_0x1e_0xCEPhiPiPFvPciE
         w _Z21cmd_handler_0x1e_0xCFPhiPiPFvPciE
         w _Z21cmd_handler_0x1e_0xD0PhiPiPFvPciE
         w _Z21cmd_handler_0x1e_0xD1PhiPiPFvPciE
         w _Z21cmd_handler_0x1e_0xD2PhiPiPFvPciE
         w _Z21cmd_handler_0x1e_0xD3PhiPiPFvPciE
         w _Z21cmd_handler_0x1e_0xD4PhiPiPFvPciE
         w _Z21cmd_handler_0x1e_0xD5PhiPiPFvPciE
         w _Z21cmd_handler_0x1e_0xD6PhiPiPFvPciE
         w _Z21cmd_handler_0x1e_0xD7PhiPiPFvPciE
         w _Z21cmd_handler_0x1e_0xD8PhiPiPFvPciE
         w _Z21cmd_handler_0x1e_0xD9PhiPiPFvPciE
         w _Z21cmd_handler_0x1e_0xDAPhiPiPFvPciE
         w _Z21cmd_handler_0x1e_0xDBPhiPiPFvPciE
         w _Z21cmd_handler_0x1e_0xDCPhiPiPFvPciE
         w _Z21cmd_handler_0x1e_0xDDPhiPiPFvPciE
         w _Z21cmd_handler_0x1e_0xDEPhiPiPFvPciE
         w _Z21cmd_handler_0x1e_0xDFPhiPiPFvPciE
         w _Z21cmd_handler_0x1e_0xE0PhiPiPFvPciE
         w _Z21cmd_handler_0x1e_0xE1PhiPiPFvPciE
         w _Z21cmd_handler_0x1e_0xE2PhiPiPFvPciE
         w _Z21cmd_handler_0x1e_0xE3PhiPiPFvPciE
         w _Z21cmd_handler_0x1e_0xE4PhiPiPFvPciE
         w _Z21cmd_handler_0x1e_0xE5PhiPiPFvPciE
         w _Z21cmd_handler_0x1e_0xE6PhiPiPFvPciE
         w _Z21cmd_handler_0x1e_0xE7PhiPiPFvPciE
         w _Z21cmd_handler_0x1e_0xE8PhiPiPFvPciE
         w _Z21cmd_handler_0x1e_0xE9PhiPiPFvPciE
         w _Z21cmd_handler_0x1e_0xEAPhiPiPFvPciE
         w _Z21cmd_handler_0x1e_0xEBPhiPiPFvPciE
         w _Z21cmd_handler_0x1e_0xECPhiPiPFvPciE
         w _Z21cmd_handler_0x1e_0xEDPhiPiPFvPciE
         w _Z21cmd_handler_0x1e_0xEEPhiPiPFvPciE
         w _Z21cmd_handler_0x1e_0xEFPhiPiPFvPciE
         w _Z21cmd_handler_0x1e_0xF0PhiPiPFvPciE
         w _Z21cmd_handler_0x1e_0xF1PhiPiPFvPciE
         w _Z21cmd_handler_0x1e_0xF2PhiPiPFvPciE
         w _Z21cmd_handler_0x1e_0xF3PhiPiPFvPciE
         w _Z21cmd_handler_0x1e_0xF4PhiPiPFvPciE
         w _Z21cmd_handler_0x1e_0xF5PhiPiPFvPciE
         w _Z21cmd_handler_0x1e_0xF6PhiPiPFvPciE
         w _Z21cmd_handler_0x1e_0xF7PhiPiPFvPciE
         w _Z21cmd_handler_0x1e_0xF8PhiPiPFvPciE
         w _Z21cmd_handler_0x1e_0xF9PhiPiPFvPciE
         w _Z21cmd_handler_0x1e_0xFAPhiPiPFvPciE
         w _Z21cmd_handler_0x1e_0xFBPhiPiPFvPciE
         w _Z21cmd_handler_0x1e_0xFCPhiPiPFvPciE
         w _Z21cmd_handler_0x1e_0xFDPhiPiPFvPciE
         w _Z21cmd_handler_0x1e_0xFEPhiPiPFvPciE
         w _Z21cmd_handler_0x1e_0xFFPhiPiPFvPciE
         w _Z21cmd_handler_0x1f_0x00PhiPiPFvPciE
         w _Z21cmd_handler_0x1f_0x01PhiPiPFvPciE
         w _Z21cmd_handler_0x1f_0x02PhiPiPFvPciE
         w _Z21cmd_handler_0x1f_0x03PhiPiPFvPciE
         w _Z21cmd_handler_0x1f_0x04PhiPiPFvPciE
         w _Z21cmd_handler_0x1f_0x05PhiPiPFvPciE
         w _Z21cmd_handler_0x1f_0x06PhiPiPFvPciE
         w _Z21cmd_handler_0x1f_0x07PhiPiPFvPciE
         w _Z21cmd_handler_0x1f_0x08PhiPiPFvPciE
         w _Z21cmd_handler_0x1f_0x09PhiPiPFvPciE
         w _Z21cmd_handler_0x1f_0x0APhiPiPFvPciE
         w _Z21cmd_handler_0x1f_0x0BPhiPiPFvPciE
         w _Z21cmd_handler_0x1f_0x0CPhiPiPFvPciE
         w _Z21cmd_handler_0x1f_0x0DPhiPiPFvPciE
         w _Z21cmd_handler_0x1f_0x0EPhiPiPFvPciE
         w _Z21cmd_handler_0x1f_0x0FPhiPiPFvPciE
         w _Z21cmd_handler_0x1f_0x10PhiPiPFvPciE
         w _Z21cmd_handler_0x1f_0x11PhiPiPFvPciE
         w _Z21cmd_handler_0x1f_0x12PhiPiPFvPciE
         w _Z21cmd_handler_0x1f_0x13PhiPiPFvPciE
         w _Z21cmd_handler_0x1f_0x14PhiPiPFvPciE
         w _Z21cmd_handler_0x1f_0x15PhiPiPFvPciE
         w _Z21cmd_handler_0x1f_0x16PhiPiPFvPciE
         w _Z21cmd_handler_0x1f_0x17PhiPiPFvPciE
         w _Z21cmd_handler_0x1f_0x18PhiPiPFvPciE
         w _Z21cmd_handler_0x1f_0x19PhiPiPFvPciE
         w _Z21cmd_handler_0x1f_0x1APhiPiPFvPciE
         w _Z21cmd_handler_0x1f_0x1BPhiPiPFvPciE
         w _Z21cmd_handler_0x1f_0x1CPhiPiPFvPciE
         w _Z21cmd_handler_0x1f_0x1DPhiPiPFvPciE
         w _Z21cmd_handler_0x1f_0x1EPhiPiPFvPciE
         w _Z21cmd_handler_0x1f_0x1FPhiPiPFvPciE
         w _Z21cmd_handler_0x1f_0x20PhiPiPFvPciE
         w _Z21cmd_handler_0x1f_0x21PhiPiPFvPciE
         w _Z21cmd_handler_0x1f_0x22PhiPiPFvPciE
         w _Z21cmd_handler_0x1f_0x23PhiPiPFvPciE
         w _Z21cmd_handler_0x1f_0x24PhiPiPFvPciE
         w _Z21cmd_handler_0x1f_0x25PhiPiPFvPciE
         w _Z21cmd_handler_0x1f_0x26PhiPiPFvPciE
         w _Z21cmd_handler_0x1f_0x27PhiPiPFvPciE
         w _Z21cmd_handler_0x1f_0x28PhiPiPFvPciE
         w _Z21cmd_handler_0x1f_0x29PhiPiPFvPciE
         w _Z21cmd_handler_0x1f_0x2APhiPiPFvPciE
         w _Z21cmd_handler_0x1f_0x2BPhiPiPFvPciE
         w _Z21cmd_handler_0x1f_0x2CPhiPiPFvPciE
         w _Z21cmd_handler_0x1f_0x2DPhiPiPFvPciE
         w _Z21cmd_handler_0x1f_0x2EPhiPiPFvPciE
         w _Z21cmd_handler_0x1f_0x2FPhiPiPFvPciE
         w _Z21cmd_handler_0x1f_0x30PhiPiPFvPciE
         w _Z21cmd_handler_0x1f_0x31PhiPiPFvPciE
         w _Z21cmd_handler_0x1f_0x32PhiPiPFvPciE
         w _Z21cmd_handler_0x1f_0x33PhiPiPFvPciE
         w _Z21cmd_handler_0x1f_0x34PhiPiPFvPciE
         w _Z21cmd_handler_0x1f_0x35PhiPiPFvPciE
         w _Z21cmd_handler_0x1f_0x36PhiPiPFvPciE
         w _Z21cmd_handler_0x1f_0x37PhiPiPFvPciE
         w _Z21cmd_handler_0x1f_0x38PhiPiPFvPciE
         w _Z21cmd_handler_0x1f_0x39PhiPiPFvPciE
         w _Z21cmd_handler_0x1f_0x3APhiPiPFvPciE
         w _Z21cmd_handler_0x1f_0x3BPhiPiPFvPciE
         w _Z21cmd_handler_0x1f_0x3CPhiPiPFvPciE
         w _Z21cmd_handler_0x1f_0x3DPhiPiPFvPciE
         w _Z21cmd_handler_0x1f_0x3EPhiPiPFvPciE
         w _Z21cmd_handler_0x1f_0x3FPhiPiPFvPciE
         w _Z21cmd_handler_0x1f_0x40PhiPiPFvPciE
         w _Z21cmd_handler_0x1f_0x41PhiPiPFvPciE
         w _Z21cmd_handler_0x1f_0x42PhiPiPFvPciE
         w _Z21cmd_handler_0x1f_0x43PhiPiPFvPciE
         w _Z21cmd_handler_0x1f_0x44PhiPiPFvPciE
         w _Z21cmd_handler_0x1f_0x45PhiPiPFvPciE
         w _Z21cmd_handler_0x1f_0x46PhiPiPFvPciE
         w _Z21cmd_handler_0x1f_0x47PhiPiPFvPciE
         w _Z21cmd_handler_0x1f_0x48PhiPiPFvPciE
         w _Z21cmd_handler_0x1f_0x49PhiPiPFvPciE
         w _Z21cmd_handler_0x1f_0x4APhiPiPFvPciE
         w _Z21cmd_handler_0x1f_0x4BPhiPiPFvPciE
         w _Z21cmd_handler_0x1f_0x4CPhiPiPFvPciE
         w _Z21cmd_handler_0x1f_0x4DPhiPiPFvPciE
         w _Z21cmd_handler_0x1f_0x4EPhiPiPFvPciE
         w _Z21cmd_handler_0x1f_0x4FPhiPiPFvPciE
         w _Z21cmd_handler_0x1f_0x50PhiPiPFvPciE
         w _Z21cmd_handler_0x1f_0x51PhiPiPFvPciE
         w _Z21cmd_handler_0x1f_0x53PhiPiPFvPciE
         w _Z21cmd_handler_0x1f_0x54PhiPiPFvPciE
         w _Z21cmd_handler_0x1f_0x55PhiPiPFvPciE
         w _Z21cmd_handler_0x1f_0x56PhiPiPFvPciE
         w _Z21cmd_handler_0x1f_0x57PhiPiPFvPciE
         w _Z21cmd_handler_0x1f_0x58PhiPiPFvPciE
         w _Z21cmd_handler_0x1f_0x59PhiPiPFvPciE
         w _Z21cmd_handler_0x1f_0x5APhiPiPFvPciE
         w _Z21cmd_handler_0x1f_0x5BPhiPiPFvPciE
         w _Z21cmd_handler_0x1f_0x5CPhiPiPFvPciE
         w _Z21cmd_handler_0x1f_0x5DPhiPiPFvPciE
         w _Z21cmd_handler_0x1f_0x5EPhiPiPFvPciE
         w _Z21cmd_handler_0x1f_0x5FPhiPiPFvPciE
         w _Z21cmd_handler_0x1f_0x60PhiPiPFvPciE
         w _Z21cmd_handler_0x1f_0x61PhiPiPFvPciE
         w _Z21cmd_handler_0x1f_0x62PhiPiPFvPciE
         w _Z21cmd_handler_0x1f_0x63PhiPiPFvPciE
         w _Z21cmd_handler_0x1f_0x64PhiPiPFvPciE
         w _Z21cmd_handler_0x1f_0x65PhiPiPFvPciE
         w _Z21cmd_handler_0x1f_0x66PhiPiPFvPciE
         w _Z21cmd_handler_0x1f_0x67PhiPiPFvPciE
         w _Z21cmd_handler_0x1f_0x68PhiPiPFvPciE
         w _Z21cmd_handler_0x1f_0x69PhiPiPFvPciE
         w _Z21cmd_handler_0x1f_0x6APhiPiPFvPciE
         w _Z21cmd_handler_0x1f_0x6BPhiPiPFvPciE
         w _Z21cmd_handler_0x1f_0x6CPhiPiPFvPciE
         w _Z21cmd_handler_0x1f_0x6DPhiPiPFvPciE
         w _Z21cmd_handler_0x1f_0x6EPhiPiPFvPciE
         w _Z21cmd_handler_0x1f_0x6FPhiPiPFvPciE
         w _Z21cmd_handler_0x1f_0x70PhiPiPFvPciE
         w _Z21cmd_handler_0x1f_0x71PhiPiPFvPciE
         w _Z21cmd_handler_0x1f_0x72PhiPiPFvPciE
         w _Z21cmd_handler_0x1f_0x73PhiPiPFvPciE
         w _Z21cmd_handler_0x1f_0x74PhiPiPFvPciE
         w _Z21cmd_handler_0x1f_0x75PhiPiPFvPciE
         w _Z21cmd_handler_0x1f_0x76PhiPiPFvPciE
         w _Z21cmd_handler_0x1f_0x77PhiPiPFvPciE
         w _Z21cmd_handler_0x1f_0x78PhiPiPFvPciE
         w _Z21cmd_handler_0x1f_0x79PhiPiPFvPciE
         w _Z21cmd_handler_0x1f_0x7APhiPiPFvPciE
         w _Z21cmd_handler_0x1f_0x7BPhiPiPFvPciE
         w _Z21cmd_handler_0x1f_0x7CPhiPiPFvPciE
         w _Z21cmd_handler_0x1f_0x7DPhiPiPFvPciE
         w _Z21cmd_handler_0x1f_0x7EPhiPiPFvPciE
         w _Z21cmd_handler_0x1f_0x7FPhiPiPFvPciE
         w _Z21cmd_handler_0x1f_0x80PhiPiPFvPciE
         w _Z21cmd_handler_0x1f_0x81PhiPiPFvPciE
         w _Z21cmd_handler_0x1f_0x82PhiPiPFvPciE
         w _Z21cmd_handler_0x1f_0x83PhiPiPFvPciE
         w _Z21cmd_handler_0x1f_0x84PhiPiPFvPciE
         w _Z21cmd_handler_0x1f_0x85PhiPiPFvPciE
         w _Z21cmd_handler_0x1f_0x86PhiPiPFvPciE
         w _Z21cmd_handler_0x1f_0x87PhiPiPFvPciE
         w _Z21cmd_handler_0x1f_0x88PhiPiPFvPciE
         w _Z21cmd_handler_0x1f_0x89PhiPiPFvPciE
         w _Z21cmd_handler_0x1f_0x8APhiPiPFvPciE
         w _Z21cmd_handler_0x1f_0x8BPhiPiPFvPciE
         w _Z21cmd_handler_0x1f_0x8CPhiPiPFvPciE
         w _Z21cmd_handler_0x1f_0x8DPhiPiPFvPciE
         w _Z21cmd_handler_0x1f_0x8EPhiPiPFvPciE
         w _Z21cmd_handler_0x1f_0x8FPhiPiPFvPciE
         w _Z21cmd_handler_0x1f_0x90PhiPiPFvPciE
         w _Z21cmd_handler_0x1f_0x91PhiPiPFvPciE
         w _Z21cmd_handler_0x1f_0x92PhiPiPFvPciE
         w _Z21cmd_handler_0x1f_0x93PhiPiPFvPciE
         w _Z21cmd_handler_0x1f_0x94PhiPiPFvPciE
         w _Z21cmd_handler_0x1f_0x95PhiPiPFvPciE
         w _Z21cmd_handler_0x1f_0x96PhiPiPFvPciE
         w _Z21cmd_handler_0x1f_0x97PhiPiPFvPciE
         w _Z21cmd_handler_0x1f_0x98PhiPiPFvPciE
         w _Z21cmd_handler_0x1f_0x99PhiPiPFvPciE
         w _Z21cmd_handler_0x1f_0x9APhiPiPFvPciE
         w _Z21cmd_handler_0x1f_0x9BPhiPiPFvPciE
         w _Z21cmd_handler_0x1f_0x9CPhiPiPFvPciE
         w _Z21cmd_handler_0x1f_0x9DPhiPiPFvPciE
         w _Z21cmd_handler_0x1f_0x9EPhiPiPFvPciE
         w _Z21cmd_handler_0x1f_0x9FPhiPiPFvPciE
         w _Z21cmd_handler_0x1f_0xA0PhiPiPFvPciE
         w _Z21cmd_handler_0x1f_0xA1PhiPiPFvPciE
         w _Z21cmd_handler_0x1f_0xA2PhiPiPFvPciE
         w _Z21cmd_handler_0x1f_0xA3PhiPiPFvPciE
         w _Z21cmd_handler_0x1f_0xA4PhiPiPFvPciE
         w _Z21cmd_handler_0x1f_0xA5PhiPiPFvPciE
         w _Z21cmd_handler_0x1f_0xA6PhiPiPFvPciE
         w _Z21cmd_handler_0x1f_0xA7PhiPiPFvPciE
         w _Z21cmd_handler_0x1f_0xA8PhiPiPFvPciE
         w _Z21cmd_handler_0x1f_0xA9PhiPiPFvPciE
         w _Z21cmd_handler_0x1f_0xAAPhiPiPFvPciE
         w _Z21cmd_handler_0x1f_0xABPhiPiPFvPciE
         w _Z21cmd_handler_0x1f_0xACPhiPiPFvPciE
         w _Z21cmd_handler_0x1f_0xADPhiPiPFvPciE
         w _Z21cmd_handler_0x1f_0xAEPhiPiPFvPciE
         w _Z21cmd_handler_0x1f_0xAFPhiPiPFvPciE
         w _Z21cmd_handler_0x1f_0xB0PhiPiPFvPciE
         w _Z21cmd_handler_0x1f_0xB1PhiPiPFvPciE
         w _Z21cmd_handler_0x1f_0xB2PhiPiPFvPciE
         w _Z21cmd_handler_0x1f_0xB3PhiPiPFvPciE
         w _Z21cmd_handler_0x1f_0xB4PhiPiPFvPciE
         w _Z21cmd_handler_0x1f_0xB5PhiPiPFvPciE
         w _Z21cmd_handler_0x1f_0xB6PhiPiPFvPciE
         w _Z21cmd_handler_0x1f_0xB7PhiPiPFvPciE
         w _Z21cmd_handler_0x1f_0xB8PhiPiPFvPciE
         w _Z21cmd_handler_0x1f_0xB9PhiPiPFvPciE
         w _Z21cmd_handler_0x1f_0xBAPhiPiPFvPciE
         w _Z21cmd_handler_0x1f_0xBBPhiPiPFvPciE
         w _Z21cmd_handler_0x1f_0xBCPhiPiPFvPciE
         w _Z21cmd_handler_0x1f_0xBDPhiPiPFvPciE
         w _Z21cmd_handler_0x1f_0xBEPhiPiPFvPciE
         w _Z21cmd_handler_0x1f_0xBFPhiPiPFvPciE
         w _Z21cmd_handler_0x1f_0xC0PhiPiPFvPciE
         w _Z21cmd_handler_0x1f_0xC1PhiPiPFvPciE
         w _Z21cmd_handler_0x1f_0xC2PhiPiPFvPciE
         w _Z21cmd_handler_0x1f_0xC3PhiPiPFvPciE
         w _Z21cmd_handler_0x1f_0xC4PhiPiPFvPciE
         w _Z21cmd_handler_0x1f_0xC5PhiPiPFvPciE
         w _Z21cmd_handler_0x1f_0xC6PhiPiPFvPciE
         w _Z21cmd_handler_0x1f_0xC7PhiPiPFvPciE
         w _Z21cmd_handler_0x1f_0xC8PhiPiPFvPciE
         w _Z21cmd_handler_0x1f_0xC9PhiPiPFvPciE
         w _Z21cmd_handler_0x1f_0xCAPhiPiPFvPciE
         w _Z21cmd_handler_0x1f_0xCBPhiPiPFvPciE
         w _Z21cmd_handler_0x1f_0xCCPhiPiPFvPciE
         w _Z21cmd_handler_0x1f_0xCDPhiPiPFvPciE
         w _Z21cmd_handler_0x1f_0xCEPhiPiPFvPciE
         w _Z21cmd_handler_0x1f_0xCFPhiPiPFvPciE
         w _Z21cmd_handler_0x1f_0xD0PhiPiPFvPciE
         w _Z21cmd_handler_0x1f_0xD1PhiPiPFvPciE
         w _Z21cmd_handler_0x1f_0xD2PhiPiPFvPciE
         w _Z21cmd_handler_0x1f_0xD3PhiPiPFvPciE
         w _Z21cmd_handler_0x1f_0xD4PhiPiPFvPciE
         w _Z21cmd_handler_0x1f_0xD5PhiPiPFvPciE
         w _Z21cmd_handler_0x1f_0xD6PhiPiPFvPciE
         w _Z21cmd_handler_0x1f_0xD7PhiPiPFvPciE
         w _Z21cmd_handler_0x1f_0xD8PhiPiPFvPciE
         w _Z21cmd_handler_0x1f_0xD9PhiPiPFvPciE
         w _Z21cmd_handler_0x1f_0xDAPhiPiPFvPciE
         w _Z21cmd_handler_0x1f_0xDBPhiPiPFvPciE
         w _Z21cmd_handler_0x1f_0xDCPhiPiPFvPciE
         w _Z21cmd_handler_0x1f_0xDDPhiPiPFvPciE
         w _Z21cmd_handler_0x1f_0xDEPhiPiPFvPciE
         w _Z21cmd_handler_0x1f_0xDFPhiPiPFvPciE
         w _Z21cmd_handler_0x1f_0xE0PhiPiPFvPciE
         w _Z21cmd_handler_0x1f_0xE1PhiPiPFvPciE
         w _Z21cmd_handler_0x1f_0xE2PhiPiPFvPciE
         w _Z21cmd_handler_0x1f_0xE3PhiPiPFvPciE
         w _Z21cmd_handler_0x1f_0xE4PhiPiPFvPciE
         w _Z21cmd_handler_0x1f_0xE5PhiPiPFvPciE
         w _Z21cmd_handler_0x1f_0xE6PhiPiPFvPciE
         w _Z21cmd_handler_0x1f_0xE7PhiPiPFvPciE
         w _Z21cmd_handler_0x1f_0xE8PhiPiPFvPciE
         w _Z21cmd_handler_0x1f_0xE9PhiPiPFvPciE
         w _Z21cmd_handler_0x1f_0xEAPhiPiPFvPciE
         w _Z21cmd_handler_0x1f_0xEBPhiPiPFvPciE
         w _Z21cmd_handler_0x1f_0xECPhiPiPFvPciE
         w _Z21cmd_handler_0x1f_0xEDPhiPiPFvPciE
         w _Z21cmd_handler_0x1f_0xEEPhiPiPFvPciE
         w _Z21cmd_handler_0x1f_0xEFPhiPiPFvPciE
         w _Z21cmd_handler_0x1f_0xF0PhiPiPFvPciE
         w _Z21cmd_handler_0x1f_0xF1PhiPiPFvPciE
         w _Z21cmd_handler_0x1f_0xF2PhiPiPFvPciE
         w _Z21cmd_handler_0x1f_0xF3PhiPiPFvPciE
         w _Z21cmd_handler_0x1f_0xF4PhiPiPFvPciE
         w _Z21cmd_handler_0x1f_0xF5PhiPiPFvPciE
         w _Z21cmd_handler_0x1f_0xF6PhiPiPFvPciE
         w _Z21cmd_handler_0x1f_0xF7PhiPiPFvPciE
         w _Z21cmd_handler_0x1f_0xF8PhiPiPFvPciE
         w _Z21cmd_handler_0x1f_0xF9PhiPiPFvPciE
         w _Z21cmd_handler_0x1f_0xFAPhiPiPFvPciE
         w _Z21cmd_handler_0x1f_0xFBPhiPiPFvPciE
         w _Z21cmd_handler_0x1f_0xFCPhiPiPFvPciE
         w _Z21cmd_handler_0x1f_0xFDPhiPiPFvPciE
         w _Z21cmd_handler_0x1f_0xFEPhiPiPFvPciE
         w _Z21cmd_handler_0x1f_0xFFPhiPiPFvPciE
         U _Z9init_vectv
         U _ZN6USBHAL10disconnectEv
         U _ZN6USBHAL10setAddressEh
         U _ZN6USBHAL12EP0readStageEv
         U _ZN6USBHAL12endpointReadEhm
         U _ZN6USBHAL13endpointWriteEhPhm
         U _ZN6USBHAL13stallEndpointEh
         U _ZN6USBHAL15configureDeviceEv
         U _ZN6USBHAL15realiseEndpointEhmm
         U _ZN6USBHAL15unstallEndpointEh
         U _ZN6USBHAL16EP0getReadResultEPh
         U _ZN6USBHAL17unconfigureDeviceEv
         U _ZN6USBHAL18endpointReadResultEhPhPm
         U _ZN6USBHAL19endpointWriteResultEh
         U _ZN6USBHAL21getEndpointStallStateEh
         U _ZN6USBHAL7EP0readEv
         U _ZN6USBHAL7connectEv
         U _ZN6USBHAL8EP0setupEPh
         U _ZN6USBHAL8EP0stallEv
         U _ZN6USBHAL8EP0writeEPhm
         U __bb_int_handler
         U __bss_end__
         U __bss_start__
         U __data_end__
         U __data_start__
         U __etext
         U __fini_array_end
         U __fini_array_start
         U __gxx_personality_v0
         U __preinit_array_end
         U __preinit_array_start
         U _bt_irq_flash_end_location
         U _bt_irq_flash_start_location
         U _bt_irq_sram_txt_start
         U _bt_sram_bss_end
         U _bt_sram_bss_start
         U _bt_sram_flash_end_location
         U _bt_sram_flash_start_location
         U _bt_sram_heap_size
         U _bt_sram_heap_start
         U _bt_sram_start
         U _heap_start
         U alloc_mem_block
         U apbs_AddedData
         U apbs_GetBufPosition
         U apbs_Play
         U apbs_Setup
         U apbs_Stop
         U aud_CodecGalliteCalibUpdateValues
         U aud_CodecGalliteInit
         U aud_CodecGalliteSetup
         U aud_CodecGalliteStreamPause
         U aud_CodecGalliteStreamRecord
         U aud_CodecGalliteStreamStart
         U aud_CodecGalliteStreamStop
         U aud_CodecGalliteTone
         U aud_CodecGalliteTonePause
         U aud_CodecWM8960CalibUpdateValues
         U aud_CodecWM8960Setup
         U aud_CodecWM8960StreamPause
         U aud_CodecWM8960StreamRecord
         U aud_CodecWM8960StreamStart
         U aud_CodecWM8960StreamStop
         U aud_CodecWM8960Tone
         U aud_CodecWM8960TonePause
         U aud_FmCalibUpdateValues
         U aud_FmSetup
         U aud_FmStreamPause
         U aud_FmStreamRecord
         U aud_FmStreamStart
         U aud_FmStreamStop
         U aud_FmTone
         U aud_FmTonePause
         U aud_LineinCalibUpdateValues
         U aud_LineinSetup
         U aud_LineinStreamPause
         U aud_LineinStreamRecord
         U aud_LineinStreamStart
         U aud_LineinStreamStop
         U aud_LineinTone
         U aud_LineinTonePause
         U aud_Setup
         U aud_StreamPause
         U bcpu_main_entry
         U bcpu_stack_base
         U boot_Sector_Nand
         U bt_irq
         U btcpu_DbgPageProtectGetHitAddress
         U btcpu_DbgPageProtectGetHitMaster
         U btcpu_int_entry
         U btcpu_main_entry
         U btcpu_stack_base
         U g_bootSectorStructPtr
         U g_pSend_BT_notify
         U gpio_CardDetectHandler
         U gpio_scan_keys
         U hal_AudOutputMuted
         U hal_GoudaGetTiming
         U hal_GoudaSetTiming
         U hal_I2cClose
         U hal_I2cOpen
         U hal_I2cReadRawByte
         U hal_I2cSendRawByte
         U hal_SysAuxClkOut
         U hal_SysClkOutClose
         U hal_SysClkOutOpen
         U hal_UartAllowSleep
         U hal_UartBreakIntWakeup
         U hal_UartClearErrorStatus
         U hal_UartClose
         U hal_UartFifoFlush
         U hal_UartGetData
         U hal_UartIrqEnableBreakInt
         U hal_UartIrqSetHandler
         U hal_UartIrqSetMask
         U hal_UartOpen
         U hal_UartRxDmaFifoEmpty
         U hal_UartRxDmaLevel
         U hal_UartRxDmaPurgeFifo
         U hal_UartRxDmaStop
         U hal_UartRxFifoLevel
         U hal_UartSendData
         U hal_UartSetRts
         U hal_UartTxDmaDone
         U hal_UartTxFifoAvailable
         U hal_UartTxFinished
         U hal_UsbEpTransfertDone
         U musb_start
         U pDebugCheckFunc
         U pmd_Close
         U pmd_ConfigureRfLowPower
         U pmd_EnablePower
         U pmd_GetBatteryGpadcChannel
         U pmd_GpadcDisable
         U pmd_GpadcEnableChannel
         U pmd_GpadcSetInterval
         U pmd_RegRead
         U pmd_RegWrite
         U pmd_SetCoreVoltage
         U pmd_SetPowerMode
         U pmd_SpeakerPaCpLowOutput
         U pmd_SpeakerPaPostEnable
         U pmd_SpeakerPaPreEnable
         U rda5868_uart_stop
         U rda_bt_rf_init
         U rda_bt_uart_init
         U rdabt_chip_sel
         U rdabt_hci_GetSCOBuffer
         U rdabt_hci_ReleaseCommandBuffer
         U rdabt_send_data_ready
         U rdabt_send_notify_flash
         U rfd_XcvRegForceRead
         U rfd_XcvRegForceWrite
         U sxr_GetHeapEnd
         U sxs_BackTrace
         U sxs_RegisterDebugIdleHookFunc
         U sxs_SaveRmtBuffer
         U tgt_GetUctlsConfig
00000000 a ../../../gcc-4.4.2/libgcc/../gcc/config/fp-bit.h
00000000 a ../../../gcc-4.4.2/libgcc/../gcc/config/fp-bit.h
00000000 a ../../../gcc-4.4.2/libgcc/../gcc/libgcc2.c
00000000 a ../../../gcc-4.4.2/libgcc/../gcc/libgcc2.c
00000000 a ../../../gcc-4.4.2/libgcc/../gcc/libgcc2.c
00000000 a ../../../gcc-4.4.2/libgcc/../gcc/libgcc2.c
00000000 a ../../../gcc-4.4.2/libgcc/../gcc/libgcc2.c
00000000 a ../../../gcc-4.4.2/libgcc/../gcc/libgcc2.h
00000000 a ../.././gcc/dp-bit.c
00000000 a ../.././gcc/dp-bit.c
00000000 a ../.././gcc/dp-bit.c
00000000 a ../.././gcc/dp-bit.c
00000000 a ../.././gcc/dp-bit.c
00000000 a ../.././gcc/dp-bit.c
00000000 a ../.././gcc/dp-bit.c
00000000 a ../.././gcc/dp-bit.c
00000000 a ../.././gcc/dp-bit.c
00000000 a ../.././gcc/dp-bit.c
00000000 a ../.././gcc/dp-bit.c
00000000 a ../.././gcc/fp-bit.c
00000000 a ../.././gcc/fp-bit.c
00000000 a ../.././gcc/fp-bit.c
00000000 a ../.././gcc/fp-bit.c
00000000 a ../.././gcc/fp-bit.c
00000000 a ../.././gcc/fp-bit.c
00000000 a ../.././gcc/fp-bit.c
00000000 a ../.././gcc/fp-bit.c
00000000 a ../.././gcc/fp-bit.c
00000000 a ../.././gcc/fp-bit.c
00000000 a ../.././gcc/fp-bit.c
00000000 a ../.././gcc/fp-bit.c
00000000 a ../.././gcc/fp-bit.c
00000000 a ./include/mbed/DirHandle.h
00000000 a ./include/usb/USBHAL.h
00000000 n .comment
00000000 N .debug_abbrev
00000000 N .debug_aranges
00000000 N .debug_frame
00000000 N .debug_info
00000000 N .debug_line
00000000 N .debug_loc
00000000 N .debug_pubnames
00000000 N .debug_str
00000000 a 0.Base/0.ExtIO/ExtIO.cpp
00000000 a 0.Base/1.Board/LcdWithHz/LcdFontHz16.c
00000000 a 0.Base/4.Sleep/hal_wakeup.cpp
00000000 a 0.libc/atol.cpp
00000000 a 0.libc/cxa_atexit.cpp
00000000 a 0.libc/sprintf.cpp
00000000 a 0.libc/strings.cpp
00000000 a 1.Link/lib/Link.cpp
00000000 a 1.Link/lib/LinkReg.cpp
00000000 a 1.Link/lib/hal_Link.cpp
00000000 a 1.init/crt0.cpp
00000000 a 1.init/hal_debug_serial.cpp
00000000 a 1.init/hal_init_clock.cpp
00000000 a 1.init/hal_init_cpu.cpp
00000000 a 1.init/hal_init_malloc.cpp
00000000 a 1.init/start_main.cpp
00000000 a 2.Debug/Debug.cpp
00000000 a 2.sys/crc/crc32_1.cpp
00000000 a 2.sys/hal_cpu.cpp
00000000 a 2.sys/hal_isp.cpp
00000000 a 2.sys/hal_ms_ticker.cpp
00000000 a 2.sys/hal_reg.cpp
00000000 a 2.sys/hal_us_ticker.cpp
00000000 a 2.sys/hal_us_timeout_event.cpp
00000000 a 2.sys/mem/malloc.cpp
00000000 a 2.sys/mem/mem_region.cpp
00000000 a 2.sys/mem/mem_usage.cpp
00000000 a 2.sys/mem/new_delete.cpp
00000000 a 2.sys/reg/reg.cpp
00000000 a 2.sys/sleep/sleep.cpp
00000000 a 2.sys/sys_timer/ms_ticker.cpp
00000000 a 2.sys/sys_timer/us_ticker.cpp
00000000 a 2.sys/sys_timer/us_timeout_event.cpp
00000000 a 3.Comm/1.CommUsb/CommUsb.cpp
00000000 a 3.Comm/2.CommBTComb/CommBTComb.cpp
00000000 a 3.Comm/Comm.cpp
00000000 a 3.rtos/hal_rtos_wraper.cpp
00000000 a 3.rtos/os_info.cpp
00000000 a 3.rtos/rtos_class/Thread.cpp
00000000 a 3.rtos/rtos_wrapper.cpp
00000000 a 4.CmdBase/CmdBase/CmdBase.cpp
00000000 a 4.CmdBase/cmd_reg.cpp
00000000 a 4.mbed/Fifo.cpp
00000000 a 4.mbed/FileBase.cpp
00000000 a 4.mbed/FilePath.cpp
00000000 a 4.mbed/FunctionPointer.cpp
00000000 a 4.mbed/FunctionPointer1Arg.cpp
00000000 a 4.mbed/FunctionPointer2Arg.cpp
00000000 a 4.mbed/Ticker.cpp
00000000 a 4.mbed/Timer.cpp
00000000 a 4.mbed/Timer.cpp
00000000 a 4.mbed/file_io_retarget.cpp
00000000 a 4.mbed/mbed_retarget.cpp
00000000 a 4.mbed/ms_ticker.cpp
00000000 a 4.peripherals/AnalogIn.cpp
00000000 a 4.peripherals/DigitalIn.cpp
00000000 a 4.peripherals/DigitalOut.cpp
00000000 a 4.peripherals/I2C.cpp
00000000 a 4.peripherals/InterruptIn.cpp
00000000 a 4.peripherals/PwmOut.cpp
00000000 a 4.peripherals/RawSerialRxDma.cpp
00000000 a 4.peripherals/SPI.cpp
00000000 a 5.PrnEngine/PrnEngine.cpp
00000000 a 5.PrnEngine/hal/hal_head_tx.cpp
00000000 a 5.PrnEngine/hal/hal_markdetect.cpp
00000000 a 5.PrnEngine/hal/hal_motor.cpp
00000000 a 5.PrnEngine/hal/hal_status.cpp
00000000 a 5.PrnEngine/hal/hal_stb.cpp
00000000 a 5.PrnEngine/hal_timeout/hal_timeout.cpp
00000000 a 5856sdk/TaskInit.c
00000000 a 5856sdk/bal_init.c
00000000 a 5856sdk/bal_tasks.c
00000000 a 5856sdk/boot_loader.c
00000000 a 5856sdk/hal_ana_gpadc.c
00000000 a 5856sdk/hal_lps.c
00000000 a 5856sdk/hal_open.c
00000000 a 5856sdk/hal_usb_mgc.c
00000000 a 5856sdk/pmd_charger.c
00000000 a 5856sdk/sap_main.c
00000000 a 5856sdk/umss_service.c
00000000 a 6.PrnCmd/prnCmd.cpp
00000000 a 6.bluetooth/RawBluetooth.cpp
00000000 a 6.bluetooth/ap_bt/ap_ble.c
00000000 a 6.bluetooth/ap_bt/ap_ble_spp.c
00000000 a 6.bluetooth/ap_bt/ap_mgr.c
00000000 a 6.bluetooth/ap_bt/ap_spp.c
00000000 a 7.UiFunc/uiFeed.cpp
00000000 a C:/Users/John/Desktop/5856_1029/Unit_test/platform/base/std/src/memcmp.c
00000000 a C:/Users/John/Desktop/5856_1029/Unit_test/platform/base/std/src/memcpy.c
00000000 a C:/Users/John/Desktop/5856_1029/Unit_test/platform/base/std/src/memset.c
00000000 a C:/Users/John/Desktop/5856_1029/Unit_test/platform/base/std/src/strcpy.c
00000000 a C:/Users/John/Desktop/5856_1029/Unit_test/platform/base/std/src/strlen.c
00000000 a C:/Users/John/Desktop/5856_1029/Unit_test/platform/base/std/src/strncpy.c
00000000 a C:/Users/John/Desktop/5856_1029/Unit_test/platform/chip/btcpu/src/btcpu_gdb_stub.c
00000000 a C:/Users/John/Desktop/5856_1029/Unit_test/platform/chip/btcpu/src/btcpu_main.c
00000000 a C:/Users/John/Desktop/5856_1029/Unit_test/platform/edrv/btd/rdaStack/src/rdabt_papi.c
00000000 a C:/Users/John/Desktop/5856_1029/Unit_test/platform/edrv/btd/rdaStack/src/rdabt_sharemem.c
00000000 a D:/D_back/IOT/RDA5856_bak/platform/base/std/src/memcpy.c
00000000 a D:/D_back/IOT/RDA5856_bak/platform/base/std/src/memmove.c
00000000 a D:/D_back/IOT/RDA5856_bak/platform/base/std/src/memset.c
00000000 a D:/D_back/IOT/RDA5856_bak/platform/base/std/src/strlen.c
00000000 a D:/D_back/IOT/RDA5856_bak/platform/base/std/src/vsprintf.c
00000000 a D:/D_back/IOT/RDA5856_bak/platform/base/sx/src/sxr_sbx.c
00000000 a D:/D_back/IOT/RDA5856_bak/platform/base/sx/src/sxr_tim.c
00000000 a D:/D_back/IOT/RDA5856_bak/platform/base/sx/src/sxr_tksd.c
00000000 a D:/D_back/IOT/RDA5856_bak/platform/base/sx/src/sxr_tls.c
00000000 a D:/D_back/IOT/RDA5856_bak/platform/base/sx/src/sxs_io.c
00000000 a D:/D_back/IOT/RDA5856_bak/platform/base/sx/src/sxs_sbx.c
00000000 a D:/D_back/IOT/RDA5856_bak/platform/base/sx/src/sxs_tim.c
00000000 a D:/D_back/IOT/RDA5856_bak/platform/base/sx/src/sxs_tksd.c
00000000 a D:/D_back/IOT/RDA5856_bak/platform/chip/boot/5856/src/boot_host.c
00000000 a D:/D_back/IOT/RDA5856_bak/platform/chip/boot/5856/src/boot_irq_dispatch.c
00000000 a D:/D_back/IOT/RDA5856_bak/platform/chip/boot/5856/src/boot_ispi.c
00000000 a D:/D_back/IOT/RDA5856_bak/platform/chip/boot/5856/src/boot_monitor.c
00000000 a D:/D_back/IOT/RDA5856_bak/platform/chip/boot/5856/src/boot_rom_if.c
00000000 a D:/D_back/IOT/RDA5856_bak/platform/chip/boot/5856/src/boot_rom_version.c
00000000 a D:/D_back/IOT/RDA5856_bak/platform/chip/boot/5856/src/boot_romstring.c
00000000 a D:/D_back/IOT/RDA5856_bak/platform/chip/boot/5856/src/boot_usb.c
00000000 a D:/D_back/IOT/RDA5856_bak/platform/chip/boot/5856/src/boot_usb_monitor.c
00000000 a D:/D_back/IOT/RDA5856_bak/platform/chip/hal/5856/src/hal_abb_config.c
00000000 a D:/D_back/IOT/RDA5856_bak/platform/chip/hal/5856/src/hal_config.c
00000000 a D:/D_back/IOT/RDA5856_bak/platform/chip/hal/5856/src/hal_gpio.c
00000000 a D:/D_back/IOT/RDA5856_bak/platform/chip/hal/src/hal_ana_gpadc.c
00000000 a D:/D_back/IOT/RDA5856_bak/platform/chip/hal/src/hal_assert.c
00000000 a D:/D_back/IOT/RDA5856_bak/platform/chip/hal/src/hal_boot_sector_driver.c
00000000 a D:/D_back/IOT/RDA5856_bak/platform/chip/hal/src/hal_debug.c
00000000 a D:/D_back/IOT/RDA5856_bak/platform/chip/hal/src/hal_ebc.c
00000000 a D:/D_back/IOT/RDA5856_bak/platform/chip/hal/src/hal_host.c
00000000 a D:/D_back/IOT/RDA5856_bak/platform/chip/hal/src/hal_host_ram.c
00000000 a D:/D_back/IOT/RDA5856_bak/platform/chip/hal/src/hal_ispi.c
00000000 a D:/D_back/IOT/RDA5856_bak/platform/chip/hal/src/hal_lps.c
00000000 a D:/D_back/IOT/RDA5856_bak/platform/chip/hal/src/hal_musb_core.c
00000000 a D:/D_back/IOT/RDA5856_bak/platform/chip/hal/src/hal_musb_dma.c
00000000 a D:/D_back/IOT/RDA5856_bak/platform/chip/hal/src/hal_profile.c
00000000 a D:/D_back/IOT/RDA5856_bak/platform/chip/hal/src/hal_rda_abb.c
00000000 a D:/D_back/IOT/RDA5856_bak/platform/chip/hal/src/hal_rda_audio.c
00000000 a D:/D_back/IOT/RDA5856_bak/platform/chip/hal/src/hal_rfspi.c
00000000 a D:/D_back/IOT/RDA5856_bak/platform/chip/hal/src/hal_spi_flash.c
00000000 a D:/D_back/IOT/RDA5856_bak/platform/chip/hal/src/hal_sys.c
00000000 a D:/D_back/IOT/RDA5856_bak/platform/chip/hal/src/hal_tcu.c
00000000 a D:/D_back/IOT/RDA5856_bak/platform/chip/hal/src/hal_timer.c
00000000 a D:/D_back/IOT/RDA5856_bak/platform/chip/hal/src/hal_usb_mgc.c
00000000 a D:/D_back/IOT/RDA5856_bak/platform/chip/hal/src/hal_usbhost_mgc.c
00000000 a D:/D_back/IOT/RDA5856_bak/platform/edrv/memd/flsh_spi8m/src/drv_flsh.c
00000000 a D:/D_back/IOT/RDA5856_bak/platform/edrv/memd/flsh_spi8m/src/drv_flsh_map.c
00000000 a D:/D_back/IOT/RDA5856_bak/platform/include/cs_types.h
00000000 a D:/D_back/IOT/RDA5856_bak/target/src/target_config.c
00000000 a E:/YANGCHUNDONG/mcu_build/mcu_build/mcu_build_SDK/Targets/RDA5856/libHAL_STD/5856/platform/chip/5856/boot/../../comn/boot/src/boot_sector.c
00000000 a E:/YANGCHUNDONG/mcu_build/mcu_build/mcu_build_SDK/Targets/RDA5856/libHAL_STD/5856/platform/chip/5856/boot/src/boot_ispi.c
00000000 a E:/YANGCHUNDONG/mcu_build/mcu_build/mcu_build_SDK/Targets/RDA5856/libHAL_STD/5856/platform/chip/5856/boot/src/boot_rom_if.c
00000000 a E:/YANGCHUNDONG/mcu_build/mcu_build/mcu_build_SDK/Targets/RDA5856/libHAL_STD/5856/platform/chip/5856/boot/src/boot_sector_chip.c
00000000 a E:/YANGCHUNDONG/mcu_build/mcu_build/mcu_build_SDK/Targets/RDA5856/libHAL_STD/5856/platform/chip/5856/btcpu/src/btcpu_gdb_stub.c
00000000 a E:/YANGCHUNDONG/mcu_build/mcu_build/mcu_build_SDK/Targets/RDA5856/libHAL_STD/5856/platform/chip/5856/btcpu/src/btcpu_main.c
00000000 a E:/YANGCHUNDONG/mcu_build/mcu_build/mcu_build_SDK/Targets/RDA5856/libHAL_STD/5856/platform/chip/5856/hal/../../comn/hal/src/hal_aif.c
00000000 a E:/YANGCHUNDONG/mcu_build/mcu_build/mcu_build_SDK/Targets/RDA5856/libHAL_STD/5856/platform/chip/5856/hal/../../comn/hal/src/hal_assert.c
00000000 a E:/YANGCHUNDONG/mcu_build/mcu_build/mcu_build_SDK/Targets/RDA5856/libHAL_STD/5856/platform/chip/5856/hal/../../comn/hal/src/hal_boot_sector_driver.c
00000000 a E:/YANGCHUNDONG/mcu_build/mcu_build/mcu_build_SDK/Targets/RDA5856/libHAL_STD/5856/platform/chip/5856/hal/../../comn/hal/src/hal_bt.c
00000000 a E:/YANGCHUNDONG/mcu_build/mcu_build/mcu_build_SDK/Targets/RDA5856/libHAL_STD/5856/platform/chip/5856/hal/../../comn/hal/src/hal_calendar.c
00000000 a E:/YANGCHUNDONG/mcu_build/mcu_build/mcu_build_SDK/Targets/RDA5856/libHAL_STD/5856/platform/chip/5856/hal/../../comn/hal/src/hal_debug.c
00000000 a E:/YANGCHUNDONG/mcu_build/mcu_build/mcu_build_SDK/Targets/RDA5856/libHAL_STD/5856/platform/chip/5856/hal/../../comn/hal/src/hal_dma.c
00000000 a E:/YANGCHUNDONG/mcu_build/mcu_build/mcu_build_SDK/Targets/RDA5856/libHAL_STD/5856/platform/chip/5856/hal/../../comn/hal/src/hal_ebc.c
00000000 a E:/YANGCHUNDONG/mcu_build/mcu_build/mcu_build_SDK/Targets/RDA5856/libHAL_STD/5856/platform/chip/5856/hal/../../comn/hal/src/hal_flash.c
00000000 a E:/YANGCHUNDONG/mcu_build/mcu_build/mcu_build_SDK/Targets/RDA5856/libHAL_STD/5856/platform/chip/5856/hal/../../comn/hal/src/hal_gdb_stub.c
00000000 a E:/YANGCHUNDONG/mcu_build/mcu_build/mcu_build_SDK/Targets/RDA5856/libHAL_STD/5856/platform/chip/5856/hal/../../comn/hal/src/hal_host.c
00000000 a E:/YANGCHUNDONG/mcu_build/mcu_build/mcu_build_SDK/Targets/RDA5856/libHAL_STD/5856/platform/chip/5856/hal/../../comn/hal/src/hal_host_ram.c
00000000 a E:/YANGCHUNDONG/mcu_build/mcu_build/mcu_build_SDK/Targets/RDA5856/libHAL_STD/5856/platform/chip/5856/hal/../../comn/hal/src/hal_i2c.c
00000000 a E:/YANGCHUNDONG/mcu_build/mcu_build/mcu_build_SDK/Targets/RDA5856/libHAL_STD/5856/platform/chip/5856/hal/../../comn/hal/src/hal_irq.c
00000000 a E:/YANGCHUNDONG/mcu_build/mcu_build/mcu_build_SDK/Targets/RDA5856/libHAL_STD/5856/platform/chip/5856/hal/../../comn/hal/src/hal_ispi.c
00000000 a E:/YANGCHUNDONG/mcu_build/mcu_build/mcu_build_SDK/Targets/RDA5856/libHAL_STD/5856/platform/chip/5856/hal/../../comn/hal/src/hal_map.c
00000000 a E:/YANGCHUNDONG/mcu_build/mcu_build/mcu_build_SDK/Targets/RDA5856/libHAL_STD/5856/platform/chip/5856/hal/../../comn/hal/src/hal_map_engine.c
00000000 a E:/YANGCHUNDONG/mcu_build/mcu_build/mcu_build_SDK/Targets/RDA5856/libHAL_STD/5856/platform/chip/5856/hal/../../comn/hal/src/hal_musb_core.c
00000000 a E:/YANGCHUNDONG/mcu_build/mcu_build/mcu_build_SDK/Targets/RDA5856/libHAL_STD/5856/platform/chip/5856/hal/../../comn/hal/src/hal_musb_dma.c
00000000 a E:/YANGCHUNDONG/mcu_build/mcu_build/mcu_build_SDK/Targets/RDA5856/libHAL_STD/5856/platform/chip/5856/hal/../../comn/hal/src/hal_page_spy.c
00000000 a E:/YANGCHUNDONG/mcu_build/mcu_build/mcu_build_SDK/Targets/RDA5856/libHAL_STD/5856/platform/chip/5856/hal/../../comn/hal/src/hal_profile.c
00000000 a E:/YANGCHUNDONG/mcu_build/mcu_build/mcu_build_SDK/Targets/RDA5856/libHAL_STD/5856/platform/chip/5856/hal/../../comn/hal/src/hal_pwm.c
00000000 a E:/YANGCHUNDONG/mcu_build/mcu_build/mcu_build_SDK/Targets/RDA5856/libHAL_STD/5856/platform/chip/5856/hal/../../comn/hal/src/hal_rfspi.c
00000000 a E:/YANGCHUNDONG/mcu_build/mcu_build/mcu_build_SDK/Targets/RDA5856/libHAL_STD/5856/platform/chip/5856/hal/../../comn/hal/src/hal_spi.c
00000000 a E:/YANGCHUNDONG/mcu_build/mcu_build/mcu_build_SDK/Targets/RDA5856/libHAL_STD/5856/platform/chip/5856/hal/../../comn/hal/src/hal_spi_flash.c
00000000 a E:/YANGCHUNDONG/mcu_build/mcu_build/mcu_build_SDK/Targets/RDA5856/libHAL_STD/5856/platform/chip/5856/hal/../../comn/hal/src/hal_sys_ifc.c
00000000 a E:/YANGCHUNDONG/mcu_build/mcu_build/mcu_build_SDK/Targets/RDA5856/libHAL_STD/5856/platform/chip/5856/hal/../../comn/hal/src/hal_tcu.c
00000000 a E:/YANGCHUNDONG/mcu_build/mcu_build/mcu_build_SDK/Targets/RDA5856/libHAL_STD/5856/platform/chip/5856/hal/../../comn/hal/src/hal_timer.c
00000000 a E:/YANGCHUNDONG/mcu_build/mcu_build/mcu_build_SDK/Targets/RDA5856/libHAL_STD/5856/platform/chip/5856/hal/../../comn/hal/src/hal_trace.c
00000000 a E:/YANGCHUNDONG/mcu_build/mcu_build/mcu_build_SDK/Targets/RDA5856/libHAL_STD/5856/platform/chip/5856/hal/../../comn/hal/src/hal_uart.c
00000000 a E:/YANGCHUNDONG/mcu_build/mcu_build/mcu_build_SDK/Targets/RDA5856/libHAL_STD/5856/platform/chip/5856/hal/../../comn/hal/src/hal_usbhost_mgc.c
00000000 a E:/YANGCHUNDONG/mcu_build/mcu_build/mcu_build_SDK/Targets/RDA5856/libHAL_STD/5856/platform/chip/5856/hal/../../comn/hal/src/hal_voc.c
00000000 a E:/YANGCHUNDONG/mcu_build/mcu_build/mcu_build_SDK/Targets/RDA5856/libHAL_STD/5856/platform/chip/5856/hal/src/hal_abb_config.c
00000000 a E:/YANGCHUNDONG/mcu_build/mcu_build/mcu_build_SDK/Targets/RDA5856/libHAL_STD/5856/platform/chip/5856/hal/src/hal_config.c
00000000 a E:/YANGCHUNDONG/mcu_build/mcu_build/mcu_build_SDK/Targets/RDA5856/libHAL_STD/5856/platform/chip/5856/hal/src/hal_gpio.c
00000000 a E:/YANGCHUNDONG/mcu_build/mcu_build/mcu_build_SDK/Targets/RDA5856/libHAL_STD/5856/platform/chip/5856/hal/src/hal_rda_abb.c
00000000 a E:/YANGCHUNDONG/mcu_build/mcu_build/mcu_build_SDK/Targets/RDA5856/libHAL_STD/5856/platform/chip/5856/hal/src/hal_rda_audio.c
00000000 a E:/YANGCHUNDONG/mcu_build/mcu_build/mcu_build_SDK/Targets/RDA5856/libHAL_STD/5856/platform/chip/5856/hal/src/hal_sys.c
00000000 a E:/YANGCHUNDONG/mcu_build/mcu_build/mcu_build_SDK/Targets/RDA5856/libHAL_STD/5856/platform/edrv/btd/bttask/src/bttask_btcpu.c
00000000 a E:/YANGCHUNDONG/mcu_build/mcu_build/mcu_build_SDK/Targets/RDA5856/libHAL_STD/5856/platform/edrv/btd/bttask/src/bttask_btcpu.c
00000000 a E:/YANGCHUNDONG/mcu_build/mcu_build/mcu_build_SDK/Targets/RDA5856/libHAL_STD/5856/platform/edrv/btd/bttask/src/bttask_combined_xcpu.c
00000000 a E:/YANGCHUNDONG/mcu_build/mcu_build/mcu_build_SDK/Targets/RDA5856/libHAL_STD/5856/platform/edrv/btd/bttask/src/bttask_combined_xcpu.c
00000000 a E:/YANGCHUNDONG/mcu_build/mcu_build/mcu_build_SDK/Targets/RDA5856/libHAL_STD/5856/platform/edrv/btd/bttask/src/bttask_message.c
00000000 a E:/YANGCHUNDONG/mcu_build/mcu_build/mcu_build_SDK/Targets/RDA5856/libHAL_STD/5856/platform/edrv/btd/bttask/src/bttask_message.c
00000000 a E:/YANGCHUNDONG/mcu_build/mcu_build/mcu_build_SDK/Targets/RDA5856/libHAL_STD/5856/platform/edrv/btd/hcit/src/rdabt_hcit_uart.c
00000000 a E:/YANGCHUNDONG/mcu_build/mcu_build/mcu_build_SDK/Targets/RDA5856/libHAL_STD/5856/platform/edrv/btd/hcit/src/rdabt_hcit_uart.c
00000000 a E:/YANGCHUNDONG/mcu_build/mcu_build/mcu_build_SDK/Targets/RDA5856/libHAL_STD/5856/platform/edrv/btd/hcit/src/rdabt_sharemem.c
00000000 a E:/YANGCHUNDONG/mcu_build/mcu_build/mcu_build_SDK/Targets/RDA5856/libHAL_STD/5856/platform/edrv/btd/hcit/src/rdabt_sharemem.c
00000000 a E:/YANGCHUNDONG/mcu_build/mcu_build/mcu_build_SDK/Targets/RDA5856/libHAL_STD/5856/platform/edrv/btd/hcit/src/rdabt_uart.c
00000000 a E:/YANGCHUNDONG/mcu_build/mcu_build/mcu_build_SDK/Targets/RDA5856/libHAL_STD/5856/platform/edrv/btd/hcit/src/rdabt_uart.c
00000000 a E:/YANGCHUNDONG/mcu_build/mcu_build/mcu_build_SDK/Targets/RDA5856/libHAL_STD/5856/platform/edrv/btd/hcit/src/rdabt_uart_drv.c
00000000 a E:/YANGCHUNDONG/mcu_build/mcu_build/mcu_build_SDK/Targets/RDA5856/libHAL_STD/5856/platform/edrv/btd/hcit/src/rdabt_uart_drv.c
00000000 a E:/YANGCHUNDONG/mcu_build/mcu_build/mcu_build_SDK/Targets/RDA5856/libHAL_STD/5856/platform/edrv/btd/rdaDriver/src/rdabt_5856_init.c
00000000 a E:/YANGCHUNDONG/mcu_build/mcu_build/mcu_build_SDK/Targets/RDA5856/libHAL_STD/5856/platform/edrv/btd/rdaDriver/src/rdabt_5856_init.c
00000000 a E:/YANGCHUNDONG/mcu_build/mcu_build/mcu_build_SDK/Targets/RDA5856/libHAL_STD/5856/platform/edrv/btd/rdaDriver/src/rdabt_poweron.c
00000000 a E:/YANGCHUNDONG/mcu_build/mcu_build/mcu_build_SDK/Targets/RDA5856/libHAL_STD/5856/platform/edrv/btd/rdaDriver/src/rdabt_poweron.c
00000000 a E:/YANGCHUNDONG/mcu_build/mcu_build/mcu_build_SDK/Targets/RDA5856/libHAL_STD/5856/platform/edrv/btd/rdaDriver/src/rdabt_test.c
00000000 a E:/YANGCHUNDONG/mcu_build/mcu_build/mcu_build_SDK/Targets/RDA5856/libHAL_STD/5856/platform/edrv/btd/rdaDriver/src/rdabt_test.c
00000000 a E:/YANGCHUNDONG/mcu_build/mcu_build/mcu_build_SDK/Targets/RDA5856/libHAL_STD/5856/platform/edrv/btd/src/btd_map.c
00000000 a E:/YANGCHUNDONG/mcu_build/mcu_build/mcu_build_SDK/Targets/RDA5856/libHAL_STD/5856/platform/edrv/btd/src/btd_map.c
00000000 a E:/YANGCHUNDONG/mcu_build/mcu_build/mcu_build_SDK/Targets/RDA5856/libHAL_STD/5856/platform/edrv/gpio/gpio_5856/src/gpio_detect.c
00000000 a E:/YANGCHUNDONG/mcu_build/mcu_build/mcu_build_SDK/Targets/RDA5856/libHAL_STD/5856/platform/edrv/gpio/gpio_5856/src/gpio_edrv.c
00000000 a E:/YANGCHUNDONG/mcu_build/mcu_build/mcu_build_SDK/Targets/RDA5856/libHAL_STD/5856/platform/edrv/gpio/gpio_5856/src/gpio_key.c
00000000 a E:/YANGCHUNDONG/mcu_build/mcu_build/mcu_build_SDK/Targets/RDA5856/libHAL_STD/5856/platform/edrv/gpio/gpio_5856/src/gpio_leds.c
00000000 a E:/YANGCHUNDONG/mcu_build/mcu_build/mcu_build_SDK/Targets/RDA5856/libHAL_STD/5856/platform/edrv/memd/flsh_spi8m/src/drv_flsh.c
00000000 a E:/YANGCHUNDONG/mcu_build/mcu_build/mcu_build_SDK/Targets/RDA5856/libHAL_STD/5856/platform/edrv/memd/flsh_spi8m/src/drv_flsh_map.c
00000000 a E:/YANGCHUNDONG/mcu_build/mcu_build/mcu_build_SDK/Targets/RDA5856/libHAL_STD/5856/platform/edrv/memd/src/memd_map.c
00000000 a E:/YANGCHUNDONG/mcu_build/mcu_build/mcu_build_SDK/Targets/RDA5856/libHAL_STD/5856/platform/edrv/memd/src/memd_switch_mode.c
00000000 a E:/YANGCHUNDONG/mcu_build/mcu_build/mcu_build_SDK/Targets/RDA5856/libHAL_STD/5856/platform/edrv/pmd/pmu_5856/src/pmd.c
00000000 a E:/YANGCHUNDONG/mcu_build/mcu_build/mcu_build_SDK/Targets/RDA5856/libHAL_STD/5856/platform/edrv/pmd/src/pmd_map.c
00000000 a E:/YANGCHUNDONG/mcu_build/mcu_build/mcu_build_SDK/Targets/RDA5856/libHAL_STD/5856/platform/edrv/rfd/xcv_5856/src/drv_xcv.c
00000000 a E:/YANGCHUNDONG/mcu_build/mcu_build/mcu_build_SDK/Targets/RDA5856/libHAL_STD/5856/platform/edrv/rfd/xcv_5856/src/drv_xcv_init.c
00000000 a E:/YANGCHUNDONG/mcu_build/mcu_build/mcu_build_SDK/Targets/RDA5856/libHAL_STD/5856/platform/rtos/std/src/assert.c
00000000 a E:/YANGCHUNDONG/mcu_build/mcu_build/mcu_build_SDK/Targets/RDA5856/libHAL_STD/5856/platform/rtos/std/src/memset.c
00000000 a E:/YANGCHUNDONG/mcu_build/mcu_build/mcu_build_SDK/Targets/RDA5856/libHAL_STD/5856/platform/rtos/std/src/strcpy.c
00000000 a E:/YANGCHUNDONG/mcu_build/mcu_build/mcu_build_SDK/Targets/RDA5856/libHAL_STD/5856/platform/rtos/std/src/strlen.c
00000000 a E:/YANGCHUNDONG/mcu_build/mcu_build/mcu_build_SDK/Targets/RDA5856/libHAL_STD/5856/platform/rtos/std/src/strncmp.c
00000000 a E:/YANGCHUNDONG/mcu_build/mcu_build/mcu_build_SDK/Targets/RDA5856/libHAL_STD/5856/platform/rtos/std/src/strncpy.c
00000000 a E:/YANGCHUNDONG/mcu_build/mcu_build/mcu_build_SDK/Targets/RDA5856/libHAL_STD/5856/platform/rtos/std/src/vsprintf.c
00000000 a E:/YANGCHUNDONG/mcu_build/mcu_build/mcu_build_SDK/Targets/RDA5856/libHAL_STD/5856/platform/rtos/sx/src/sx_map.c
00000000 a E:/YANGCHUNDONG/mcu_build/mcu_build/mcu_build_SDK/Targets/RDA5856/libHAL_STD/5856/platform/rtos/sx/src/sxr_jbsd.c
00000000 a E:/YANGCHUNDONG/mcu_build/mcu_build/mcu_build_SDK/Targets/RDA5856/libHAL_STD/5856/platform/rtos/sx/src/sxr_mem.c
00000000 a E:/YANGCHUNDONG/mcu_build/mcu_build/mcu_build_SDK/Targets/RDA5856/libHAL_STD/5856/platform/rtos/sx/src/sxr_sbx.c
00000000 a E:/YANGCHUNDONG/mcu_build/mcu_build/mcu_build_SDK/Targets/RDA5856/libHAL_STD/5856/platform/rtos/sx/src/sxr_tim.c
00000000 a E:/YANGCHUNDONG/mcu_build/mcu_build/mcu_build_SDK/Targets/RDA5856/libHAL_STD/5856/platform/rtos/sx/src/sxr_tksd.c
00000000 a E:/YANGCHUNDONG/mcu_build/mcu_build/mcu_build_SDK/Targets/RDA5856/libHAL_STD/5856/platform/rtos/sx/src/sxs_io.c
00000000 a E:/YANGCHUNDONG/mcu_build/mcu_build/mcu_build_SDK/Targets/RDA5856/libHAL_STD/5856/platform/rtos/sx/src/sxs_jbsd.c
00000000 a E:/YANGCHUNDONG/mcu_build/mcu_build/mcu_build_SDK/Targets/RDA5856/libHAL_STD/5856/platform/rtos/sx/src/sxs_mutx.c
00000000 a E:/YANGCHUNDONG/mcu_build/mcu_build/mcu_build_SDK/Targets/RDA5856/libHAL_STD/5856/platform/rtos/sx/src/sxs_rmc.c
00000000 a E:/YANGCHUNDONG/mcu_build/mcu_build/mcu_build_SDK/Targets/RDA5856/libHAL_STD/5856/platform/rtos/sx/src/sxs_rmt.c
00000000 a E:/YANGCHUNDONG/mcu_build/mcu_build/mcu_build_SDK/Targets/RDA5856/libHAL_STD/5856/platform/rtos/sx/src/sxs_sbx.c
00000000 a E:/YANGCHUNDONG/mcu_build/mcu_build/mcu_build_SDK/Targets/RDA5856/libHAL_STD/5856/platform/rtos/sx/src/sxs_spy.c
00000000 a E:/YANGCHUNDONG/mcu_build/mcu_build/mcu_build_SDK/Targets/RDA5856/libHAL_STD/5856/platform/rtos/sx/src/sxs_srl.c
00000000 a E:/YANGCHUNDONG/mcu_build/mcu_build/mcu_build_SDK/Targets/RDA5856/libHAL_STD/5856/platform/rtos/sx/src/sxs_tim.c
00000000 a E:/YANGCHUNDONG/mcu_build/mcu_build/mcu_build_SDK/Targets/RDA5856/libHAL_STD/5856/platform/rtos/sx/src/sxs_tksd.c
00000000 a E:/YANGCHUNDONG/mcu_build/mcu_build/mcu_build_SDK/Targets/RDA5856/libHAL_STD/5856/platform/service/base/bal/src/Aud_main.c
00000000 a E:/YANGCHUNDONG/mcu_build/mcu_build/mcu_build_SDK/Targets/RDA5856/libHAL_STD/5856/platform/service/base/bal/src/MultimediaTask.c
00000000 a E:/YANGCHUNDONG/mcu_build/mcu_build/mcu_build_SDK/Targets/RDA5856/libHAL_STD/5856/platform/service/base/bal/src/TaskInit.c
00000000 a E:/YANGCHUNDONG/mcu_build/mcu_build/mcu_build_SDK/Targets/RDA5856/libHAL_STD/5856/platform/service/base/bal/src/bal_resource.c
00000000 a E:/YANGCHUNDONG/mcu_build/mcu_build/mcu_build_SDK/Targets/RDA5856/libHAL_STD/5856/platform/service/base/bal/src/device.c
00000000 a E:/YANGCHUNDONG/mcu_build/mcu_build/mcu_build_SDK/Targets/RDA5856/libHAL_STD/5856/platform/service/base/cos/src/cos_mem.c
00000000 a E:/YANGCHUNDONG/mcu_build/mcu_build/mcu_build_SDK/Targets/RDA5856/libHAL_STD/5856/platform/service/base/cos/src/cos_task.c
00000000 a E:/YANGCHUNDONG/mcu_build/mcu_build/mcu_build_SDK/Targets/RDA5856/libHAL_STD/5856/platform/service/base/cos/src/cos_task_sxr.c
00000000 a E:/YANGCHUNDONG/mcu_build/mcu_build/mcu_build_SDK/Targets/RDA5856/libHAL_STD/5856/platform/service/base/cos/src/cos_timer.c
00000000 a E:/YANGCHUNDONG/mcu_build/mcu_build/mcu_build_SDK/Targets/RDA5856/libHAL_STD/5856/platform/service/base/ml/src/ml.c
00000000 a E:/YANGCHUNDONG/mcu_build/mcu_build/mcu_build_SDK/Targets/RDA5856/libHAL_STD/5856/platform/service/base/ml/src/ml_iso8859_1.c
00000000 a E:/YANGCHUNDONG/mcu_build/mcu_build/mcu_build_SDK/Targets/RDA5856/libHAL_STD/5856/platform/service/base/sul/src/sul_sms.c
00000000 a E:/YANGCHUNDONG/mcu_build/mcu_build/mcu_build_SDK/Targets/RDA5856/libHAL_STD/5856/platform/service/base/sul/src/sul_string.c
00000000 a E:/YANGCHUNDONG/mcu_build/mcu_build/mcu_build_SDK/Targets/RDA5856/libHAL_STD/5856/platform/service/base/ver/src/csw_ver.c
00000000 a E:/YANGCHUNDONG/mcu_build/mcu_build/mcu_build_SDK/Targets/RDA5856/libHAL_STD/5856/platform/service/dm/src/dm_tone.c
00000000 a E:/YANGCHUNDONG/mcu_build/mcu_build/mcu_build_SDK/Targets/RDA5856/libHAL_STD/5856/platform/service/dsm/src/dsm_dev_driver.c
00000000 a E:/YANGCHUNDONG/mcu_build/mcu_build/mcu_build_SDK/Targets/RDA5856/libHAL_STD/5856/platform/service/usbdevice/src/uctls_descriptor.c
00000000 a E:/YANGCHUNDONG/mcu_build/mcu_build/mcu_build_SDK/Targets/RDA5856/libHAL_STD/5856/platform/service/usbdevice/src/uctls_fnc.c
00000000 a E:/YANGCHUNDONG/mcu_build/mcu_build/mcu_build_SDK/Targets/RDA5856/libHAL_STD/5856/target/src/target_config.c
00000000 a E:/YANGCHUNDONG/mcu_build/mcu_build/mcu_build_SDK/Targets/RDA5856/libHAL_STD/5856/target/src/target_config.c
00000000 a E:\YANGCHUNDONG\mcu_build\mcu_build\mcu_build_SDK\MakeTool\..\Library/libMBED/include/list
00000000 a E:\YANGCHUNDONG\mcu_build\mcu_build\mcu_build_SDK\MakeTool\..\Library/libMBED/include/list
00000000 a E:\YANGCHUNDONG\mcu_build\mcu_build\mcu_build_SDK\MakeTool\..\Library/libMBED/include/usb/USBHAL.h
00000000 a E:\YANGCHUNDONG\mcu_build\mcu_build\mcu_build_SDK\MakeTool\..\Library/libMBED/include/usb/USBHAL.h
00000000 a E:\YANGCHUNDONG\mcu_build\mcu_build\mcu_build_SDK\MakeTool\..\Library/libMBED/include/usb/USBHAL.h
00000000 a E:\YANGCHUNDONG\mcu_build\mcu_build\mcu_build_SDK\MakeTool\..\Library/libPublic/device/Lcd.hpp
00000000 a E:\YANGCHUNDONG\mcu_build\mcu_build\mcu_build_SDK\MakeTool\..\Library/libPublic/device/Lcd.hpp
00000000 a E:\YANGCHUNDONG\mcu_build\mcu_build\mcu_build_SDK\MakeTool\..\Library/libPublic/device/Lcd.hpp
00000000 a E:\YANGCHUNDONG\mcu_build\mcu_build\mcu_build_SDK\MakeTool\..\Library/libPublic/device/Lcd.hpp
00000000 a E:\YANGCHUNDONG\mcu_build\mcu_build\mcu_build_SDK\MakeTool\..\Library/libPublic/graphics/FrameBuffer.hpp
00000000 a E:\YANGCHUNDONG\mcu_build\mcu_build\mcu_build_SDK\MakeTool\..\Library/libPublic/graphics/FrameBuffer.hpp
00000000 A _bcpu_ram_heap_size
00000000 A _bcpu_sram_bss_size
00000000 A _board_config_size
00000000 A _calib_size
00000000 A _factory_size
00000000 A _heap_size
00000000 A _user_data_size
00000000 a ap_src/ap_service_task.c
00000000 a att.c
00000000 a att.c
00000000 a att_server.c
00000000 a att_server.c
00000000 a avdtp_callbacks.c
00000000 a avdtp_callbacks.c
00000000 a avdtp_core.c
00000000 a avdtp_core.c
00000000 a avdtp_handle_req.c
00000000 a avdtp_handle_req.c
00000000 a avdtp_handle_res.c
00000000 a avdtp_handle_res.c
00000000 a avdtp_send_req.c
00000000 a avdtp_send_req.c
00000000 a avdtp_send_res.c
00000000 a avdtp_send_res.c
00000000 a avrcp_callbacks.c
00000000 a avrcp_callbacks.c
00000000 a avrcp_core.c
00000000 a avrcp_core.c
00000000 a c_start_main.cpp
00000000 a core/bt/bt_addr_sync.c
00000000 a core/bt/bt_addr_sync.c
00000000 a core/bt/bt_addr_sync.c
00000000 a core/bt/bt_codec.c
00000000 a core/bt/bt_codec.c
00000000 a core/bt/bt_codec.c
00000000 a core/bt/bt_dl.c
00000000 a core/bt/bt_dl.c
00000000 a core/bt/bt_dl.c
00000000 a core/bt/bt_init.c
00000000 a core/bt/bt_init.c
00000000 a core/bt/bt_init.c
00000000 a core/bt/bt_mini_sched.c
00000000 a core/bt/bt_mini_sched.c
00000000 a core/bt/bt_mini_sched.c
00000000 a core/bt/bt_test.c
00000000 a core/bt/bt_test.c
00000000 a core/bt/bt_test.c
00000000 a core/bt/bt_timer.c
00000000 a core/bt/bt_timer.c
00000000 a core/bt/bt_timer.c
00000000 a core/hc/hc_cmd_disp.c
00000000 a core/hc/hc_cmd_disp.c
00000000 a core/hc/hc_cmd_disp.c
00000000 a core/hc/hc_event_gen.c
00000000 a core/hc/hc_event_gen.c
00000000 a core/hc/hc_event_gen.c
00000000 a core/hc/hc_flow_control.c
00000000 a core/hc/hc_flow_control.c
00000000 a core/hc/hc_flow_control.c
00000000 a core/hw/hw_delay.c
00000000 a core/hw/hw_delay.c
00000000 a core/hw/hw_delay.c
00000000 a core/hw/hw_lc.c
00000000 a core/hw/hw_lc.c
00000000 a core/hw/hw_lc.c
00000000 a core/lc/dl/dl_dev_impl.c
00000000 a core/lc/dl/dl_dev_impl.c
00000000 a core/lc/dl/dl_dev_impl.c
00000000 a core/lc/lc_interface.c
00000000 a core/lc/lc_interface.c
00000000 a core/lc/lc_interface.c
00000000 a core/lc/lelc/lelc_access.c
00000000 a core/lc/lelc/lelc_access.c
00000000 a core/lc/lelc/lelc_access.c
00000000 a core/lc/lelc/lelc_advert.c
00000000 a core/lc/lelc/lelc_advert.c
00000000 a core/lc/lelc/lelc_advert.c
00000000 a core/lc/lelc/lelc_assmnt.c
00000000 a core/lc/lelc/lelc_assmnt.c
00000000 a core/lc/lelc/lelc_assmnt.c
00000000 a core/lc/lelc/lelc_chan.c
00000000 a core/lc/lelc/lelc_chan.c
00000000 a core/lc/lelc/lelc_chan.c
00000000 a core/lc/lelc/lelc_conn.c
00000000 a core/lc/lelc/lelc_conn.c
00000000 a core/lc/lelc/lelc_conn.c
00000000 a core/lc/lelc/lelc_dl.c
00000000 a core/lc/lelc/lelc_dl.c
00000000 a core/lc/lelc/lelc_dl.c
00000000 a core/lc/lelc/lelc_freq.c
00000000 a core/lc/lelc/lelc_freq.c
00000000 a core/lc/lelc/lelc_freq.c
00000000 a core/lc/lelc/lelc_initiating.c
00000000 a core/lc/lelc/lelc_initiating.c
00000000 a core/lc/lelc/lelc_initiating.c
00000000 a core/lc/lelc/lelc_scan.c
00000000 a core/lc/lelc/lelc_scan.c
00000000 a core/lc/lelc/lelc_scan.c
00000000 a core/lc/lelc/lelc_sleep.c
00000000 a core/lc/lelc/lelc_sleep.c
00000000 a core/lc/lelc/lelc_sleep.c
00000000 a core/lc/lslc/lslc_access.c
00000000 a core/lc/lslc/lslc_access.c
00000000 a core/lc/lslc/lslc_access.c
00000000 a core/lc/lslc/lslc_afh.c
00000000 a core/lc/lslc/lslc_afh.c
00000000 a core/lc/lslc/lslc_afh.c
00000000 a core/lc/lslc/lslc_assmnt.c
00000000 a core/lc/lslc/lslc_assmnt.c
00000000 a core/lc/lslc/lslc_assmnt.c
00000000 a core/lc/lslc/lslc_class.c
00000000 a core/lc/lslc/lslc_class.c
00000000 a core/lc/lslc/lslc_class.c
00000000 a core/lc/lslc/lslc_clk.c
00000000 a core/lc/lslc/lslc_clk.c
00000000 a core/lc/lslc/lslc_clk.c
00000000 a core/lc/lslc/lslc_freq.c
00000000 a core/lc/lslc/lslc_freq.c
00000000 a core/lc/lslc/lslc_freq.c
00000000 a core/lc/lslc/lslc_hop.c
00000000 a core/lc/lslc/lslc_hop.c
00000000 a core/lc/lslc/lslc_hop.c
00000000 a core/lc/lslc/lslc_irq.c
00000000 a core/lc/lslc/lslc_irq.c
00000000 a core/lc/lslc/lslc_irq.c
00000000 a core/lc/lslc/lslc_pkt.c
00000000 a core/lc/lslc/lslc_pkt.c
00000000 a core/lc/lslc/lslc_slot.c
00000000 a core/lc/lslc/lslc_slot.c
00000000 a core/lc/lslc/lslc_slot.c
00000000 a core/lc/lslc/lslc_stat.c
00000000 a core/lc/lslc/lslc_stat.c
00000000 a core/lc/lslc/lslc_stat.c
00000000 a core/lc/uslc/uslc_chan_ctrl.c
00000000 a core/lc/uslc/uslc_chan_ctrl.c
00000000 a core/lc/uslc/uslc_chan_ctrl.c
00000000 a core/lc/uslc/uslc_inquiry.c
00000000 a core/lc/uslc/uslc_inquiry.c
00000000 a core/lc/uslc/uslc_inquiry.c
00000000 a core/lc/uslc/uslc_inquiryscan.c
00000000 a core/lc/uslc/uslc_inquiryscan.c
00000000 a core/lc/uslc/uslc_inquiryscan.c
00000000 a core/lc/uslc/uslc_master_slave_switch.c
00000000 a core/lc/uslc/uslc_master_slave_switch.c
00000000 a core/lc/uslc/uslc_master_slave_switch.c
00000000 a core/lc/uslc/uslc_page.c
00000000 a core/lc/uslc/uslc_page.c
00000000 a core/lc/uslc/uslc_page.c
00000000 a core/lc/uslc/uslc_pagescan.c
00000000 a core/lc/uslc/uslc_pagescan.c
00000000 a core/lc/uslc/uslc_pagescan.c
00000000 a core/lc/uslc/uslc_return_to_piconet.c
00000000 a core/lc/uslc/uslc_return_to_piconet.c
00000000 a core/lc/uslc/uslc_return_to_piconet.c
00000000 a core/lc/uslc/uslc_scheduler.c
00000000 a core/lc/uslc/uslc_scheduler.c
00000000 a core/lc/uslc/uslc_scheduler.c
00000000 a core/lc/uslc/uslc_sleep.c
00000000 a core/lc/uslc/uslc_sleep.c
00000000 a core/lc/uslc/uslc_sleep.c
00000000 a core/lc/uslc/uslc_switch_piconet.c
00000000 a core/lc/uslc/uslc_switch_piconet.c
00000000 a core/lc/uslc/uslc_switch_piconet.c
00000000 a core/lc/uslc/uslc_testmode.c
00000000 a core/lc/uslc/uslc_testmode.c
00000000 a core/lc/uslc/uslc_testmode.c
00000000 a core/ll/ll_ch.c
00000000 a core/ll/ll_ch.c
00000000 a core/ll/ll_ch.c
00000000 a core/ll/ll_cmd_disp.c
00000000 a core/ll/ll_cmd_disp.c
00000000 a core/ll/ll_cmd_disp.c
00000000 a core/ll/ll_link.c
00000000 a core/ll/ll_link.c
00000000 a core/ll/ll_link.c
00000000 a core/ll/ll_link_control.c
00000000 a core/ll/ll_link_control.c
00000000 a core/ll/ll_link_control.c
00000000 a core/ll/ll_sec.c
00000000 a core/ll/ll_sec.c
00000000 a core/ll/ll_sec.c
00000000 a core/ll/ll_utils.c
00000000 a core/ll/ll_utils.c
00000000 a core/ll/ll_utils.c
00000000 a core/lmp/lmp_acl_connection.c
00000000 a core/lmp/lmp_acl_connection.c
00000000 a core/lmp/lmp_acl_connection.c
00000000 a core/lmp/lmp_acl_container.c
00000000 a core/lmp/lmp_acl_container.c
00000000 a core/lmp/lmp_acl_container.c
00000000 a core/lmp/lmp_afh.c
00000000 a core/lmp/lmp_afh.c
00000000 a core/lmp/lmp_afh.c
00000000 a core/lmp/lmp_ch.c
00000000 a core/lmp/lmp_ch.c
00000000 a core/lmp/lmp_ch.c
00000000 a core/lmp/lmp_cmd_disp.c
00000000 a core/lmp/lmp_cmd_disp.c
00000000 a core/lmp/lmp_cmd_disp.c
00000000 a core/lmp/lmp_con_filter.c
00000000 a core/lmp/lmp_con_filter.c
00000000 a core/lmp/lmp_con_filter.c
00000000 a core/lmp/lmp_config.c
00000000 a core/lmp/lmp_config.c
00000000 a core/lmp/lmp_config.c
00000000 a core/lmp/lmp_encode_pdu.c
00000000 a core/lmp/lmp_encode_pdu.c
00000000 a core/lmp/lmp_encode_pdu.c
00000000 a core/lmp/lmp_init.c
00000000 a core/lmp/lmp_init.c
00000000 a core/lmp/lmp_init.c
00000000 a core/lmp/lmp_inquiry.c
00000000 a core/lmp/lmp_inquiry.c
00000000 a core/lmp/lmp_inquiry.c
00000000 a core/lmp/lmp_link_control_protocol.c
00000000 a core/lmp/lmp_link_control_protocol.c
00000000 a core/lmp/lmp_link_control_protocol.c
00000000 a core/lmp/lmp_link_key_db.c
00000000 a core/lmp/lmp_link_key_db.c
00000000 a core/lmp/lmp_link_key_db.c
00000000 a core/lmp/lmp_link_policy.c
00000000 a core/lmp/lmp_link_policy.c
00000000 a core/lmp/lmp_link_policy.c
00000000 a core/lmp/lmp_link_policy_protocol.c
00000000 a core/lmp/lmp_link_policy_protocol.c
00000000 a core/lmp/lmp_link_policy_protocol.c
00000000 a core/lmp/lmp_link_power_control.c
00000000 a core/lmp/lmp_link_power_control.c
00000000 a core/lmp/lmp_link_power_control.c
00000000 a core/lmp/lmp_link_qos.c
00000000 a core/lmp/lmp_link_qos.c
00000000 a core/lmp/lmp_link_qos.c
00000000 a core/lmp/lmp_scan.c
00000000 a core/lmp/lmp_scan.c
00000000 a core/lmp/lmp_scan.c
00000000 a core/lmp/lmp_sco_container.c
00000000 a core/lmp/lmp_sco_container.c
00000000 a core/lmp/lmp_sco_container.c
00000000 a core/lmp/lmp_sec_core.c
00000000 a core/lmp/lmp_sec_core.c
00000000 a core/lmp/lmp_sec_core.c
00000000 a core/lmp/lmp_sec_engine.c
00000000 a core/lmp/lmp_sec_engine.c
00000000 a core/lmp/lmp_sec_engine.c
00000000 a core/lmp/lmp_sec_peer.c
00000000 a core/lmp/lmp_sec_peer.c
00000000 a core/lmp/lmp_sec_peer.c
00000000 a core/lmp/lmp_sec_upper.c
00000000 a core/lmp/lmp_sec_upper.c
00000000 a core/lmp/lmp_sec_upper.c
00000000 a core/lmp/lmp_timer.c
00000000 a core/lmp/lmp_timer.c
00000000 a core/lmp/lmp_timer.c
00000000 a core/lmp/lmp_utils.c
00000000 a core/lmp/lmp_utils.c
00000000 a core/lmp/lmp_utils.c
00000000 a core/sys/sys_config.c
00000000 a core/sys/sys_config.c
00000000 a core/sys/sys_config.c
00000000 a core/sys/sys_rand_num_gen.c
00000000 a core/sys/sys_rand_num_gen.c
00000000 a core/sys/sys_rand_num_gen.c
00000000 a core/tc/tc_cmd_disp.c
00000000 a core/tc/tc_cmd_disp.c
00000000 a core/tc/tc_cmd_disp.c
00000000 a core/tc/tc_event_gen.c
00000000 a core/tc/tc_event_gen.c
00000000 a core/tc/tc_event_gen.c
00000000 a core/tc/tc_interface.c
00000000 a core/tc/tc_interface.c
00000000 a core/tc/tc_interface.c
00000000 a core/transport/tra_combined.c
00000000 a core/transport/tra_combined.c
00000000 a core/transport/tra_combined.c
00000000 a core/transport/tra_hcit.c
00000000 a core/transport/tra_hcit.c
00000000 a core/transport/tra_hcit.c
00000000 a core/transport/tra_queue.c
00000000 a core/transport/tra_queue.c
00000000 a core/transport/tra_queue.c
00000000 a core/transport/tra_uart.c
00000000 a core/transport/tra_uart.c
00000000 a core/transport/tra_uart.c
00000000 a d:/update/bt/platform/service/bt/btadp/src/rdabt_a2dp.c
00000000 a d:/update/bt/platform/service/bt/btadp/src/rdabt_a2dp.c
00000000 a d:/update/bt/platform/service/bt/btadp/src/rdabt_avrcp.c
00000000 a d:/update/bt/platform/service/bt/btadp/src/rdabt_avrcp.c
00000000 a d:/update/bt/platform/service/bt/btadp/src/rdabt_common.c
00000000 a d:/update/bt/platform/service/bt/btadp/src/rdabt_common.c
00000000 a d:/update/bt/platform/service/bt/btadp/src/rdabt_gatt.c
00000000 a d:/update/bt/platform/service/bt/btadp/src/rdabt_gatt.c
00000000 a d:/update/bt/platform/service/bt/btadp/src/rdabt_hfp.c
00000000 a d:/update/bt/platform/service/bt/btadp/src/rdabt_hfp.c
00000000 a d:/update/bt/platform/service/bt/btadp/src/rdabt_manager.c
00000000 a d:/update/bt/platform/service/bt/btadp/src/rdabt_manager.c
00000000 a d:/update/bt/platform/service/bt/btadp/src/rdabt_papi.c
00000000 a d:/update/bt/platform/service/bt/btadp/src/rdabt_papi.c
00000000 a d:/update/bt/platform/service/bt/btadp/src/rdabt_spp.c
00000000 a d:/update/bt/platform/service/bt/btadp/src/rdabt_spp.c
00000000 a gatt.c
00000000 a gatt.c
00000000 a hal/common/sys/hw_memcpy_impl.c
00000000 a hal/common/sys/hw_memcpy_impl.c
00000000 a hal/common/sys/sys_hal_config.c
00000000 a hal/common/sys/sys_hal_config.c
00000000 a hal/common/sys/sys_hal_config.c
00000000 a hal/common/sys/sys_init.c
00000000 a hal/common/sys/sys_init.c
00000000 a hal/common/sys/sys_init.c
00000000 a hal/common/sys/sys_irq.c
00000000 a hal/common/sys/sys_irq.c
00000000 a hal/common/sys/sys_irq.c
00000000 a hal/common/sys/sys_main.c
00000000 a hal/common/sys/sys_main.c
00000000 a hal/common/sys/sys_main.c
00000000 a hal/common/sys/sys_power.c
00000000 a hal/common/sys/sys_power.c
00000000 a hal/common/sys/sys_power.c
00000000 a hal/hw/msc/hw_apb_spi.c
00000000 a hal/hw/msc/hw_apb_spi.c
00000000 a hal/hw/msc/hw_apb_spi.c
00000000 a hal/hw/msc/hw_codec.c
00000000 a hal/hw/msc/hw_codec.c
00000000 a hal/hw/msc/hw_codec.c
00000000 a hal/hw/msc/hw_i2c_driver.c
00000000 a hal/hw/msc/hw_i2c_driver.c
00000000 a hal/hw/msc/hw_i2c_driver.c
00000000 a hal/hw/msc/hw_spi_flash.c
00000000 a hal/hw/msc/hw_spi_flash.c
00000000 a hal/hw/msc/hw_spi_flash.c
00000000 a hal/hw/radio/siwave_siw015/hw_radio.c
00000000 a hal/hw/radio/siwave_siw015/hw_radio.c
00000000 a hal/hw/radio/siwave_siw015/hw_radio.c
00000000 a hci_bufalloc.c
00000000 a hci_bufalloc.c
00000000 a hci_callbacks.c
00000000 a hci_callbacks.c
00000000 a hci_debug.c
00000000 a hci_encoder.c
00000000 a hci_encoder.c
00000000 a hci_encoder.c
00000000 a hci_flow_ctrl.c
00000000 a hci_flow_ctrl.c
00000000 a hci_primitives.c
00000000 a hci_primitives.c
00000000 a hci_primitives.c
00000000 a hfp_ag.c
00000000 a hfp_ag.c
00000000 a hfp_at.c
00000000 a hfp_at.c
00000000 a hfp_core.c
00000000 a hfp_core.c
00000000 a hfp_hs.c
00000000 a hfp_hs.c
00000000 a host_buf.c
00000000 a host_buf.c
00000000 a host_buf.c
00000000 a host_ctrl.c
00000000 a host_ctrl.c
00000000 a host_ctrl.c
00000000 a host_ll.c
00000000 a host_ll.c
00000000 a host_mem.c
00000000 a host_mem.c
00000000 a host_mem.c
00000000 a host_msg.c
00000000 a host_msg.c
00000000 a host_msg.c
00000000 a host_timer.c
00000000 a host_timer.c
00000000 a host_timer.c
00000000 a l2_acl_link.c
00000000 a l2_acl_link.c
00000000 a l2_bufalloc.c
00000000 a l2_bufalloc.c
00000000 a l2_channel.c
00000000 a l2_channel.c
00000000 a l2_config_helper.c
00000000 a l2_config_helper.c
00000000 a l2_config_sm.c
00000000 a l2_config_sm.c
00000000 a l2_connect_sm.c
00000000 a l2_connect_sm.c
00000000 a l2_enc_dec.c
00000000 a l2_enc_dec.c
00000000 a l2_pkt_handler.c
00000000 a l2_pkt_handler.c
00000000 a l2_psm.c
00000000 a l2_psm.c
00000000 a l2_sar.c
00000000 a l2_sar.c
00000000 a l2_utils.c
00000000 a l2_utils.c
00000000 a l2cap_primitives.c
00000000 a l2cap_primitives.c
00000000 a main.cpp
00000000 a mgr_core.c
00000000 a mgr_core.c
00000000 a mgr_core.c
00000000 a mgr_devdb.c
00000000 a mgr_devdb.c
00000000 a mgr_devdb.c
00000000 a mgr_inqdb.c
00000000 a mgr_inqdb.c
00000000 a mgr_inqdb.c
00000000 a mgr_le_encryption.c
00000000 a mgr_le_encryption.c
00000000 a mgr_le_link.c
00000000 a mgr_le_link.c
00000000 a mgr_le_scandb.c
00000000 a mgr_le_scandb.c
00000000 a mgr_link.c
00000000 a mgr_link.c
00000000 a mgr_link.c
00000000 a mgr_secdb.c
00000000 a mgr_secdb.c
00000000 a mgr_secdb.c
00000000 a mgr_utils.c
00000000 a mgr_utils.c
00000000 a mgr_utils.c
00000000 a rfcomm_bufalloc.c
00000000 a rfcomm_bufalloc.c
00000000 a rfcomm_core.c
00000000 a rfcomm_core.c
00000000 a rfcomm_credit.c
00000000 a rfcomm_credit.c
00000000 a rfcomm_ctrl_chan.c
00000000 a rfcomm_ctrl_chan.c
00000000 a rfcomm_ctrl_frames.c
00000000 a rfcomm_ctrl_frames.c
00000000 a rfcomm_dlc_state.c
00000000 a rfcomm_dlc_state.c
00000000 a rfcomm_entity_core.c
00000000 a rfcomm_entity_core.c
00000000 a rfcomm_frames.c
00000000 a rfcomm_frames.c
00000000 a rfcomm_l2auto_state.c
00000000 a rfcomm_l2auto_state.c
00000000 a rfcomm_l2cap.c
00000000 a rfcomm_l2cap.c
00000000 a rfcomm_ue_api.c
00000000 a rfcomm_ue_api.c
00000000 a sdp_callbacks.c
00000000 a sdp_callbacks.c
00000000 a sdp_db.c
00000000 a sdp_db.c
00000000 a sdp_le_common.c
00000000 a sdp_le_common.c
00000000 a sdp_le_request_decoder.c
00000000 a sdp_le_request_decoder.c
00000000 a sdp_le_request_encoder.c
00000000 a sdp_le_request_encoder.c
00000000 a sdp_le_response_decoder.c
00000000 a sdp_le_response_decoder.c
00000000 a sdp_le_response_encoder.c
00000000 a sdp_le_response_encoder.c
00000000 a sdp_server.c
00000000 a sdp_server.c
00000000 a sdp_state_machine.c
00000000 a sdp_state_machine.c
00000000 a sdp_ue.c
00000000 a sdp_ue.c
00000000 a spp.c
00000000 a spp.c
00000000 a stack_ent.c
00000000 a stack_ent.c
00000000 a stack_ent_api.c
00000000 a stack_ent_api.c
00000010 A _sys_rom_data_ram_size
00000010 A _sys_sram_uncached_size
00000030 A _boot_ram_bss_size
00000040 A _bt_sram_uncached_size
00000080 A _sys_sram_irq_stackwatch_size
000000a0 A _btrom_data_ram_size
00000100 A _sys_sram_txt_size
00000170 A _bt_irq_sram_txt_size
00000210 A _bt_dualport_bss_size
00000210 A _dualport_bss_size
00000310 A _bt_sram_data_size
000003e0 A _irq_sys_sram_size
00000480 A _boot_sys_sram_size
00000480 A _boot_sys_sram_txt_size
00000490 A _sys_sram_data_size
00000590 A _sys_sram_cached_size
000005a0 A _sys_sram_size
00000780 A _ram_spi_reg_debug_uncached_size
00000810 A _bt_sram_text_size
00000b20 A _bt_sram_cached_size
00000b60 A _bt_sram_size
00001130 A _sys_sram_bss_size
000016b0 A _bt_sram_bss_size
00003df0 A _bt_dualport_heap_size
00003df0 A _dualport_heap_size
0000cf8c A _sys_sram_heap_size
43800000 b g_halBootSectorStruct
43800190 b g_bootIspiProperties
43800194 b g_BootHostUsbCallbackOs
43800198 b g_BootHostUsbCallbackH2PStatus
4380019c b g_BootHostUsbVar
43800244 b p_flsh_config
43800270 b gc_halFlashCahceOn
438005f0 t _srx_irq_handler_end_dont_step_in_here
4380067c t _go_to_gdb
43800cc8 t $LCFI11
43800d18 t $LCFI13
43800d52 t $LCFI34
43800d92 t $LCFI87
43800e16 t $LCFI96
43800eaa t $LCFI100
4380103a t $LCFI5
438010be t $LCFI9
43801584 d CSWTCH.2
4380158c d g_halSysabbInitDone
438015c4 b p_flsh_config
43801622 t $LCFI0
438016d6 t $LCFI10
43801820 d g_halIspiProperties
43801828 d g_spiCmdQueue
43801934 d g_spiDataFifo
4380199c d g_tcuRegistry
438019a4 d g_halTcuEvtPtr
438019a8 d g_pmdDcdcBuck
438019aa d g_pmdMiscControlLp
438019ac d g_pmdCalibSetting2
438019ae d g_pmdMiscControlActive
43801a5c d _ZZN5UiLcd26ui_string_language_handlerEiE11language_id
43801a60 d _ZZL22battery_status_refreshiE10last_state
43801a64 d _ZZL22battery_status_refreshiE19last_batt_low_level
43801a68 d _ZZL22battery_status_refreshiE15last_no_battery
43801a6c d _ZZL22battery_status_refreshiE10last_level
43801a70 d _ZZ30uilcd_battery_display_poweroffvE10last_level
43801a74 d _ZZ30uilcd_battery_display_poweroffvE6redraw
43801a78 d _ZZL19link_status_handleriE14last_link_fail
43801ad0 d _ZZN9PrnEngine9speed_setEiE10last_speed
43801ad4 d _ZZN9PrnEngine10stb_enableEiE12last_enabled
43801adc d _ZZ14osThreadCreatePKcPFvPKvEPv10osPriorityiE6mod_id
43801ae4 d g_HalUsbVar
43801bb0 d g_halGpadcAtpConfig
43801bdc d g_pmdChargerControl
43801bde d g_pmdChargerSetting1
43801be0 d g_pmdCalibSetting1
43801be2 d g_pmdChargerSetting2
43801be4 d g_pmdBgLpModeEn
43801be8 d hids_char_read
43801bf0 d hids_char_write
43801c2a d g_pmdGpadc2
43801c2c d g_pmdLdoSettings
43801c30 d g_pmdSpeakerPaSetting1
43801c32 d g_pmdSpeakerPaSetting3
43801c34 d g_pmdThermalCalib
43801c36 d g_pmdLdoProfileSetting3
43801c38 d g_pmdLedSetting5
43801c3a d g_pmdLedSetting2
43801c3c d g_pmdBacklightOn
43801c40 d g_pmdLdoProfileSetting2
43801c44 d g_pmdLdoProfileSetting1
43801c48 d g_UctlsChargerStatus
43802164 b g_HalUsbBufferEp0Out
438021a4 b g_HalUsbBufferEp0In
43802660 b _ZZ21uilcd_power_off_checkvE13can_power_off
43802674 b _ZZL22battery_status_refreshiE19batt_low_message_on
43802678 b _ZZL22battery_status_refreshiE17last_charge_state
4380267c b _ZZL22battery_status_refreshiE5timer
43802680 b _ZZL22battery_status_refreshiE4tick
43802684 b _ZZ30uilcd_battery_display_poweroffvE4tick
43802688 b _ZL18wakeup_initialized
4380268c b _ZL6wakeup
43802690 b _ZL10wakeup_irq
43802694 b _ZL18STR_HARDWARE_ERROR
438026a8 b _ZL6serial
438026b8 b _ZL19save_link_before_tx
438026bc b _ZL18save_link_after_tx
438026c0 b _ZL16save_link_rx_cmd
438026c4 b _ZL18save_link_after_rx
438026c8 b _ZL13regLocalCount
438026cc b _ZL17regLocalTableSize
438026d0 b _ZL13regLocalTable
438026d4 b _ZL25write_reg_table_successed
438026d8 b _ZL20need_write_reg_table
438026dc b _ZL14regRemoteTable
438026e0 b _ZL18regRemoteTableSize
43802700 b _ZL8link_seq
43802704 b _ZL13fifo_tx_debug
43802728 b _ZL8CmdTimer
4380272c b _ZL6CmdBuf
43802758 b _ZGVZN9PrnEngine7cmd_getEvE5timer
43802760 b _ZZN9PrnEngine7cmd_getEvE6readed
43802764 b _ZZN9PrnEngine7cmd_getEvE11data_active
43802768 b _ZZN9PrnEngine7cmd_getEvE5timer
43802774 b _ZZN9PrnEngine7cmd_getEvE5state
43802778 b _ZZN9PrnEngine14engine_handlerEPKvE4data
4380277c b _ZL5phase
43802780 b _ZL8mark_his
43802880 b _ZL12mark_his_pos
43802888 b _ZZ17hal_timeout_startiE3dst
4380288c b _ZZ17hal_timeout_startiE3src
43802890 b _ZL7dma_isr
43802898 b _ZZL12feed_handleriE15allow_long_feed
438028a8 b _ZL24debug_serial_initialized
438028ac b _ZL10pRegConfig
438028bc b _ZL4none
438028c0 b _ZL8ExtiFptr
438029a0 b _ZL5_this
438029a4 b _ZL3vid
438029a6 b _ZL3pid
438029b8 b g_UsbMode
438029b9 b Varvbuserr_retry
438029bc b workAsHost.5856
438029c0 b g_halgpadcCalibLow
438029c4 b g_halgpadcCalibHigh
438029c8 b g_halGpadcCalibrated
438029cc b g_halGpadcSlope
438029d0 b g_halGpadcIntcpt
438029d7 b g_current_key
438029d8 b g_key_timer
438029d9 b s_key_hold_flag
438029da b g_sys_timer_id
438029db b g_pmdChargerChrVoltMonEnabled
438029dc b g_pmdChargingStage
438029e0 b g_pmdChargerPluginAtPowerOn
438029e4 b g_pmdBgLpModeRegistry
438029f0 b g_umssBoOutEp
438029f4 b g_UsbBulkOut
438029f8 b g_UsbBulkIn
43802a1c b _ZZL4initvE4addr
43802a24 b adv_msg
43802a44 b adv_param_msg
43802a4c b add_service_msg
43802a58 b service_handler_count
43802a5c b service_handler
43802a80 b value_write
43802b6c b value_read
43802c6c b _ZL16GlobalRegionSize
43802c70 b _ZL17MemoryRegionCount
43802c74 b _ZL11SLEEP_TIMER
43802c78 b _ZL11filehandles
43802e9c b g_halAudEarpieceDetectionOn
43802ea0 b g_halAudUser
43802ea4 b g_halAudVMicValid
43802ea8 b g_halSysFreqHandlerRegistry
43802f38 b g_halModuleIfcChannelOwner
43802f58 b g_halTickRegistry
43802f5c b g_halTickOverflow
43802f60 b g_halTickLastPeriod
43802f68 b gUsbHostInst
4380303c b g_halErrorRegistry
43803040 b hal_GdbGData
43803050 b g_halGdbIsInGdbLoop
43803054 b page_spy_enable
43803058 b g_halVocState
4380305c b g_halVocRegistry
43803060 b g_halAifHandlers
43803070 b g_halRtcRegistry
43803074 b g_halRtcAlarmRegistry
43803078 b InitDone.2815
43803079 b InitDone.2786
4380307a b InitDone.2903
43803088 b fifo_initialized.2987
43803094 b g_pmdInitDone
43803095 b g_pmdActivated
43803096 b g_tsdActivated
43803097 b g_pmdScreenAntiFlickerEnabled
43803098 b g_pmdHpDetectSettingLatest
4380309c b g_pmdFmInLpModeEnabled
4380309d b g_pmdAudExtPaExists
438030a0 b g_pmdDcdcVcoreValueActiveAry
438030a4 b g_pmdDcdcVcoreValueLp
438030a8 b g_pmdDcdcVcoreActRegistry
438030b0 b g_pmdDcdcVcoreActCurIndex
438030b4 b g_pmdLdoUserBitmap
438030e8 b g_pmdClk4mAvdd3EnRegistryLp
438030f0 b g_tsdConfig
438030f8 b g_UctlsDeviceDesc
43803100 b g_hCosMmiTask
43803104 b g_tskTaskList
438031f4 b cos_timers
438032f8 b user_data_buff
438032fc b user_data_buff_backup
43803300 b user_data_update
43803304 b isCreated.5635
438043c0 b g_halSysStateShutdownFlag
439000cc t _srx_irq_handler_end_dont_step_in_here
43900138 t _go_to_gdb
4390221a b slot_sequencer_running.10305
43907aa2 t $LCFI5
43907d96 t $LCFI9
43907df4 t T.41
43907df6 t $LCFI35
43907e98 t patch_Lelcconn_Process_Event_Pkd.9487
43907e9e t $LCFI38
43908032 t $LCFI0
43908068 t $LCFI4
439081aa t $LCFI6
43908216 t $LCFI67
43908d62 d rdabt_current_role
43908d65 d rdabt_pairing_mode
43908d68 d NULLADDR.3775
43908d74 d flow_state_flag.3835
439091c0 b g_halErrorRegistry
439091c4 b g_halGdbIsInGdbLoop
439091c8 b page_spy_enable
439091d0 b att_srv_info
439092d0 b sco_packet
439092d8 b sco_buf
439092e0 b host_info
439092e8 b modules
439099e8 b rda_l2_smp_channel
439099ec b rda_l2_att_channel
43909a08 b L2_Use_C_Bit
43909b20 b max_num_broadcasts.10160
43909b22 b lmp_packet_pending.10159
43909b23 b l2cap_packet_pending.10158
43909b24 b broadcast_type.10157
43909b28 b p_qD.10156
43909b2c b pDL.10155
43909b30 b null_count.9934
43909b34 b i.9120
43909b3c b hash.9571
43909b60 b first_set_event_mask_flag
43909b64 b _mgr_core_info
43909bac b _mgr_le_core_info
43909be4 b _devdb_info
43909bf8 b le_connect_info
43909bfc b _le_devdb_info
43909c08 b sniff_exit
43909c0c b connect_info
43909c10 b rdabt_mgr_pendingBDAddress
43909c18 b rdabt_mgr_pendingDisconnectHandle
43909c1a b rdabt_mgr_links
43909c1b b rdabt_calib_clock_mode
43909c1c b rdabt_mgr_voice_setting_config
43909d1d b wait_dis_dlc0_timer
43909d34 b rdabt_sdp_browse_state
43909d36 b transaction_id.3544
43909d38 b primitive_id.4086
43909f88 b sync_clk
43909f8c b source_clk
43909f90 b soundbar_play_times.5569
43c00014 t __jump_1
43c0004c t __normal_boot
43c0008c t __jump_2
43c000a4 t __power_up_disable_start_end
43c00214 t _boot_not_interrupt
43c00220 t _boot_romed_exception
43c00234 t _boot_irq_restore_context
43c00328 t _xcpu_end_boot
43c00420 t __power_up_end_start
43c0044c t __power_up_end_end
43c00494 t idle_loop
43c004a0 t __functional_test_boot
43c004a8 t boot_FunctionalTest
43c004b0 t __test_mode_jump_flash
43c0053a t $LCFI0
43c0059a t $LCFI2
43c00606 t $LCFI3
43c006e8 t $LCFI12
43c0078a t $LCFI21
43c007c6 t $LCFI24
43c00812 t $LCFI0
43c00840 t $LCFI4
43c00948 t $LCFI5
43c00a52 t $LCFI0
43c00ace t $LCFI2
43c00b60 t boot_UsbFlushRxFifo
43c00ba0 t boot_UsbFlushTxFifo
43c00bd4 t boot_UsbFlushAllTxFifos
43c00bd6 t $LCFI4
43c00c44 t boot_UsbConfig
43c00c46 t $LCFI7
43c00cdc t boot_UsbDisableEp
43c00cde t $LCFI11
43c00d18 t boot_UsbEnableEp
43c00d1a t $LCFI15
43c00de4 t boot_UsbClrConfig
43c00de6 t $LCFI19
43c00e88 t boot_UsbInit
43c00e8a t $LCFI23
43c00ec8 t boot_UsbCallbackEp
43c00eda t $LCFI26
43c0102e t $LCFI28
43c010ee t $LCFI32
43c011ee t $LCFI35
43c0121a t $LCFI38
43c01266 t $LCFI41
43c013ba t $LCFI45
43c013ee t $LCFI49
43c01416 t $LCFI51
43c01c1c t CSWTCH.62
43c01c20 t CSWTCH.65
43c01c7a t $LCFI0
43c01cc0 t boot_HostUsbCallback
43c01cc2 t $LCFI3
43c01cde t $LCFI5
43c01d12 t $LCFI7
43c01e6e t $LCFI11
43c01f10 t boot_HostUsbDecode
43c01f12 t $LCFI14
43c0230e t $LCFI18
43c023e4 t boot_HostUsbDesc
43c02400 t boot_HostUsbEpList
43c0240c t boot_HostUsbConfigList
43c02414 t boot_HostUsbEp1In
43c02424 t boot_HostUsbEp1Out
43c02434 t boot_HostUsbConfig
43c02448 t boot_HostUsbInterfaceList
43c02452 t $LCFI0
43c02572 t $LCFI3
43c025c6 t $LCFI15
43c026f2 t $LCFI23
43c02836 t $LCFI23
43c0298e t $LCFI35
43c02b76 t $LCFI41
43c02c0a t $LCFI0
43c02cd6 t $LCFI4
43c02d6e t $LCFI15
43c02ea6 t $LCFI19
43c02f2a t $LCFI6
43c02f64 t memd_FlashGetSectorLimits
43c02f66 t $LCFI0
43c03036 t $LCFI37
43c0307e t $LCFI57
43c03148 t $LCFI61
43c0327a t $LCFI65
43c032e2 t $LCFI69
43c032f6 t $LCFI75
43c03374 t $LCFI79
43c034ce t $LCFI0
43c03574 t $LCFI3
43c035ec t $LCFI0
43c06f00 t __put
43c06f44 t _printn
43c06f46 t $LCFI0
43c07088 t $LCFI4
43c0741e t $LCFI12
43c07446 t $LCFI0
43c07532 t $L2
43d000b0 t __btcpu_stack_base
43d000b4 t __btcpu_main_entry
43d000b8 t __btcpu_int_entry
43d00246 t $LCFI4
43d0026a t $LCFI7
43d002be t $LCFI10
43d00312 t $LCFI13
43d0036e t $LCFI16
43d003e2 t $LCFI19
43d00412 t $LCFI21
43d00466 t $LCFI25
43d004b6 t $LCFI29
43d0050e t $LCFI33
43d0055e t $LCFI37
43d005ca t $LCFI0
43d006ca t $LCFI4
43d006f6 t $LCFI7
43d00722 t $LCFI10
43d0075e t $LCFI13
43d007c2 t $LCFI17
43d0085a t $LCFI20
43d008ea t $LCFI24
43d0096a t $LCFI28
43d0099e t $LCFI31
43d009ca t $LCFI33
43d00a1e t $LCFI37
43d00a82 t $LCFI40
43d00a9e t $LCFI42
43d00ac2 t $LCFI45
43d00b3a t $LCFI49
43d00b72 t $LCFI52
43d00ba6 t $LCFI55
43d00be2 t $LCFI59
43d00c66 t $LCFI63
43d00c9a t $LCFI67
43d00d46 t $LCFI0
43d00d56 t $LCFI2
43d00da2 t $LCFI4
43d0103a t $LCFI8
43d010fa t $LCFI12
43d01172 t $LCFI15
43d013c2 t $LCFI19
43d01586 t $LCFI22
43d0167e t $LCFI25
43d01822 t $LCFI29
43d01982 t $LCFI0
43d01bbe t $LCFI3
43d01bf8 t $LCFI5
43d01cb2 t $LCFI8
43d01df4 t $LCFI33
43d01e42 t $LCFI36
43d01f52 t $LCFI49
43d0200a t $LCFI67
43d02066 t $LCFI69
43d021dc t g2PolyByteOffset.9115
43d021ec t g2PolyByteLen.9114
43d021fc t arrayG2Poly.9113
43d02290 t arrayG1Poly.9112
43d0243a t $LCFI18
43d025ba t $LCFI22
43d02656 t $LCFI30
43d026da t $LCFI38
43d02806 t $L279
43d02884 t $LCFI42
43d02902 t $LCFI46
43d02994 t $LCFI57
43d02ae8 t C.66.9844
43d02b14 t C.65.9843
43d02b7a t $LCFI0
43d02c06 t $LCFI22
43d02c9e t $LCFI26
43d03036 t $LCFI30
43d030ec t C.62.10618
43d030f6 t $LCFI2
43d03186 t $LCFI16
43d031ca t $LCFI40
43d0321e t $LCFI73
43d0327a t $LCFI77
43d032ba t $LCFI80
43d03302 t $LCFI94
43d034ea t $LCFI105
43d035c8 t $LCFI0
43d0362a t $LCFI2
43d03694 t $LCFI5
43d036dc t $LCFI9
43d036f0 t $LCFI11
43d03702 t $LCFI13
43d0378a t $LCFI17
43d0381c t $LCFI21
43d0382e t $LCFI29
43d03900 t $LCFI33
43d0394e t $LCFI0
43d03976 t $LCFI0
43d03a8e t $LCFI3
43d03aaa t $LCFI37
43d03b0e t $LCFI47
43d03b56 t $LCFI0
43d03b92 t $LCFI2
43d03bea t $LCFI6
43d03c56 t $LCFI9
43d03cb6 t $LCFI12
43d03d9e t $LCFI0
43d03dd6 t $LCFI2
43d03f0e t $LCFI6
43d03f82 t $LCFI10
43d03fb0 t $LCFI12
43d03ff6 t $LCFI15
43d0422a t $LCFI19
43d04280 t $LCFI0
43d0432c t _LSLChop_Get_X_Page_Inquiry
43d04376 t $LCFI4
43d045b2 t $LCFI15
43d045ce t $LCFI18
43d047c0 t $LCFI0
43d04a84 t $LCFI3
43d04bea t $LCFI9
43d04c64 t $LCFI11
43d04c7e t $LCFI13
43d04ec8 t $LCFI17
43d050f2 t $LCFI21
43d0519c t $LCFI23
43d051ee t $LCFI25
43d052ba t $LCFI29
43d0549e t $LCFI33
43d056b2 t $LCFI37
43d05724 t $LCFI40
43d0573a t $LCFI42
43d0583a t $LCFI46
43d05c52 t $LCFI50
43d05c8c t $LCFI53
43d05df6 t $LCFI57
43d05ede t $LCFI61
43d06178 t $LCFI65
43d06282 t $LCFI69
43d0629e t $LCFI71
43d0633a t $LCFI74
43d063b2 t $LCFI86
43d0648c t $LCFI88
43d065d8 t $LCFI92
43d066d4 t CSWTCH.154
43d06716 t $LCFI0
43d06802 t $LCFI8
43d0694a t $LCFI0
43d06962 t $LCFI8
43d069ce t $LCFI10
43d06aca t $LCFI12
43d06afe t $LCFI14
43d06b76 t $LCFI17
43d06be0 t $LCFI20
43d06ca2 t $LCFI22
43d06ce6 t $LCFI24
43d06dd2 t $LCFI28
43d06f0e t $LCFI0
43d06fae t $LCFI4
43d07052 t $LCFI8
43d070de t $LCFI11
43d0714a t $LCFI15
43d0730e t $LCFI19
43d073d2 t $LCFI23
43d0763a t $LCFI27
43d07946 t $LCFI31
43d07aba t $LCFI34
43d07b76 t $LCFI38
43d07bde t $LCFI41
43d07dc2 t $LCFI45
43d07f0c t $LCFI0
43d07ff0 t $LCFI4
43d0802a t $LCFI0
43d0808c t $LCFI4
43d081ca t $LCFI8
43d081fe t $LCFI13
43d0831e t $LCFI0
43d08356 t $LCFI3
43d083b2 t $LCFI6
43d08432 t $LCFI13
43d084e4 t $LCFI17
43d086b2 t $LCFI0
43d086e6 t $LCFI3
43d0871a t $LCFI6
43d0874e t $LCFI8
43d08a1a t $LCFI0
43d08a52 t $LCFI3
43d08aea t $LCFI10
43d08d4e t $L48
43d08fa6 t $LCFI0
43d08fd6 t $LCFI3
43d097c0 t $LCFI3
43d09832 t $LCFI6
43d09a46 t $LCFI10
43d09a6e t $LCFI0
43d09b42 t $LCFI4
43d09c96 t $LCFI8
43d09d7a t $LCFI12
43d09d9a t $LCFI14
43d09dfa t $LCFI18
43d09ea8 t $LCFI0
43d09ee0 t $LCFI3
43d09efa t $LCFI5
43d0a0fa t $LCFI0
43d0a152 t $LCFI3
43d0a510 t $LCFI4
43d0a59e t $LCFI14
43d0a642 t $LCFI22
43d0a66e t $LCFI24
43d0a694 t $LCFI27
43d0a702 t $LCFI30
43d0a7d4 t $LCFI36
43d0a800 t $LCFI48
43d0a816 t $LCFI50
43d0a8a0 t $LCFI54
43d0a91a t $LCFI58
43d0a9ca t $LCFI62
43d0aaa0 t $LCFI65
43d0aae4 t $LCFI69
43d0ab3a t $LCFI73
43d0ac1e t $LCFI77
43d0ac5c t $LCFI81
43d0ac7c t $LCFI83
43d0ad22 t $LCFI85
43d0ae7e t $LCFI89
43d0aef8 t $LCFI92
43d0af6c t $LCFI96
43d0afee t $LCFI100
43d0b07e t $LCFI0
43d0b21a t $LCFI0
43d0b28e t $LCFI4
43d0b302 t $LCFI6
43d0b39a t $LCFI9
43d0b3e2 t $LCFI11
43d0b432 t $LCFI0
43d0b49e t $LCFI3
43d0b50a t $LCFI7
43d0b552 t $LCFI10
43d0b586 t $LCFI25
43d0b5a6 t $LCFI27
43d0b5c2 t $LCFI29
43d0b8b6 t $LCFI0
43d0b93e t $LCFI4
43d0b992 t $LCFI8
43d0b9b6 t $LCFI11
43d0ba62 t $LCFI15
43d0babe t $LCFI19
43d0bb7a t $LCFI22
43d0bbca t $LCFI24
43d0bd52 t $LCFI27
43d0bdc2 t $LCFI29
43d0be06 t $LCFI31
43d0bf36 t $LCFI38
43d0bf76 t $LCFI42
43d0c006 t $LCFI45
43d0c152 t $LCFI49
43d0c276 t $LCFI0
43d0c30e t $LCFI3
43d0c36a t $LCFI6
43d0c452 t $LCFI9
43d0c4c2 t $LCFI12
43d0c62e t $LCFI16
43d0c64a t $LCFI19
43d0c732 t $LCFI23
43d0c772 t $LCFI25
43d0c7ea t $LCFI29
43d0c89c t $LCFI6
43d0c98c t $LCFI32
43d0c9b6 t $LCFI34
43d0cb6a t $LCFI0
43d0cc4a t $LCFI6
43d0cd0a t $LCFI4
43d0cd96 t $LCFI15
43d0cf3c t $LCFI2
43d0cfa2 t $LCFI10
43d0d01a t $LCFI0
43d0d0a6 t $LCFI4
43d0d2ac t $LCFI16
43d0d2de t $LCFI18
43d0d320 t $LCFI21
43d0d35e t $LCFI24
43d0d3e6 t $LCFI27
43d0d422 t $LCFI29
43d0d4b2 t $LCFI6
43d0d528 t $LCFI10
43d0d582 t $LCFI33
43d0d5a6 t $LCFI8
43d0d612 t $LCFI12
43d0d64e t $LCFI14
43d0d68e t $LCFI34
43d0d6aa t $LCFI36
43d0d6ca t $LCFI42
43d0d6f6 t $LCFI44
43d0d716 t $LCFI46
43d0d74e t $LCFI48
43d0d7d6 t $LCFI50
43d0d81e t $LCFI53
43d0d876 t $LCFI57
43d0d8de t $LCFI63
43d0d91a t $LCFI67
43d0d93e t $LCFI3
43d0d962 t $LCFI5
43d0da2a t $LCFI7
43d0da52 t $LCFI10
43d0da8a t $LCFI19
43d0dab8 t $LCFI21
43d0daf2 t $LCFI23
43d0db3e t $LCFI27
43d0db8a t $LCFI30
43d0dd46 t $LCFI0
43d0dd82 t $LCFI4
43d0ddb2 t $LCFI6
43d0de16 t $LCFI10
43d0dede t $LCFI14
43d0dfc6 t $LCFI22
43d0e012 t $LCFI25
43d0e486 t $LCFI0
43d0e4f0 t $LCFI2
43d0e536 t $LCFI4
43d0e604 t $LCFI6
43d0e652 t $LCFI2
43d0e76e t $LCFI5
43d0e8de t $LCFI8
43d0ea06 t $LCFI10
43d0eb12 t $LCFI13
43d0f0f2 t $LCFI15
43d0f10e t $LCFI19
43d0f216 t $LCFI21
43d0f27c t $LCFI27
43d0f2ac t $LCFI29
43d0f566 t $LCFI33
43d0f5ca t $LCFI37
43d0f5fa t $LCFI39
43d0f982 t $LCFI43
43d0fa12 t $LCFI45
43d0fa2a t $LCFI47
43d0fa6c t $LCFI0
43d0fbe8 t $LCFI41
43d0fc92 t $LCFI0
43d0fcb8 t $LCFI0
43d0fcd0 t $LCFI2
43d0fce8 t $LCFI4
43d0fd00 t $LCFI6
43d0fd18 t $LCFI8
43d0fd30 t $LCFI10
43d0fd48 t $LCFI12
43d0fd60 t $LCFI14
43d0fd78 t $LCFI16
43d0fd90 t $LCFI18
43d0fda8 t $LCFI20
43d0fdc0 t $LCFI22
43d0fdd8 t $LCFI24
43d0fdf0 t $LCFI26
43d0fe08 t $LCFI28
43d0fe20 t $LCFI30
500020f6 t $LCFI0
50002154 t $LCFI3
5000225a t $LCFI6
500022c8 t $LCFI10
5000231c t $LCFI14
5000235a t $LCFI18
500023b4 t $LCFI21
50002426 t $LCFI25
50002492 t $LCFI0
500024d2 t $LCFI6
500025dc t $LCFI10
50002612 t $LCFI12
5000263a t $LCFI0
5000268e t $LCFI3
5000269e t $LCFI5
500027ee t $LCFI9
50002816 t $LCFI12
50002826 t $LCFI14
5000283e t $LCFI16
5000284e t $LCFI18
50002886 t $LCFI21
50002d92 t $LCFI3
50002e66 t $LCFI0
50002e7c t $LCFI2
50002edc t $LCFI4
50002f56 t $LCFI7
50002fbe t $LCFI11
50002ff2 t $LCFI14
5000306a t $LCFI18
500030a2 t $LCFI21
50003102 t $LCFI25
50003162 t $LCFI29
500031be t $LCFI33
50003206 t $LCFI37
50003272 t $LCFI41
500032d2 t $LCFI45
500032f2 t $LCFI47
50003312 t $LCFI49
50003332 t $LCFI51
50003458 t att_srv_check_security
50003542 t $LCFI6
500035c2 t $LCFI10
50003602 t $LCFI14
500036e2 t $LCFI18
50003754 t att_srv_ind_timeout_cb
50003756 t $LCFI22
500037d2 t $LCFI25
50003826 t $LCFI29
5000392c t $LCFI33
50003a4a t $LCFI37
50003aa6 t $LCFI41
50003b9e t $LCFI45
50003c62 t $LCFI49
50003cde t $LCFI53
50003d12 t $LCFI57
50003e6e t $LCFI61
50003f36 t $LCFI65
50003fca t $LCFI69
50004056 t $LCFI73
50004276 t $LCFI77
50004396 t $LCFI81
50004498 t $LCFI85
500044d2 t $LCFI87
500046e6 t $LCFI91
500047a6 t $LCFI95
500047f2 t $LCFI0
500049ae t $LCFI12
500049c0 t $LCFI14
500049da t $LCFI16
500049f8 t $LCFI0
50004a28 t $LCFI2
50004a86 t $LCFI5
50004ad2 t $LCFI7
50004bfa t $LCFI8
50004c9a t $LCFI12
50004d02 t $LCFI16
50004d98 t $LCFI2
50004dbe t $LCFI4
50004e16 t $LCFI8
50004f42 t $LCFI6
50004f96 t $LCFI10
50004fe6 t $LCFI14
50005096 t $LCFI18
500050de t $LCFI30
500051ca t $LCFI34
50005526 t $LCFI0
5000556e t $LCFI4
500055b6 t $LCFI8
500056a6 t $LCFI15
500056ee t $LCFI18
50005746 t $LCFI22
50005786 t $LCFI0
500057aa t $LCFI3
50005822 t $LCFI7
5000585e t $LCFI0
50005882 t $LCFI31
500058d4 t $LCFI35
500058ee t $LCFI48
5000590c t $LCFI50
50005922 t $LCFI64
50005970 t $LCFI84
5000598a t $LCFI88
500059a2 t $LCFI92
500059f6 t $LCFI102
50005a12 t $LCFI104
50005a2a t $LCFI114
50005a3e t $LCFI132
50005a54 t $LCFI158
50005a6a t $LCFI162
50005a7e t $LCFI168
50005a92 t $LCFI170
50005aa8 t $LCFI198
50005ac0 t $LCFI210
50005ada t $LCFI214
50005af6 t $LCFI216
50005b10 t $LCFI228
50005b2e t $LCFI250
50005b4e t $LCFI274
50005b6a t $LCFI278
50005b82 t $LCFI282
50005ba2 t $LCFI294
50005bc2 t $LCFI302
50005bdc t $LCFI306
50005bf2 t $LCFI318
50005c06 t $LCFI320
50005c1e t $LCFI322
50005c3a t $LCFI334
50005c4e t $LCFI336
50005c6e t $LCFI349
50005c86 t $LCFI353
50005ca6 t $LCFI355
50005cc2 t $LCFI364
50005cda t $LCFI366
50005d16 t $LCFI385
50005d32 t $LCFI387
50005d4a t $LCFI391
50005d62 t $LCFI393
50005d7a t $LCFI395
50005d92 t $LCFI397
50005daa t $LCFI399
50005dd2 t $LCFI403
50005e12 t $LCFI406
50005e56 t $LCFI414
50005e72 t $LCFI416
50005e8e t $LCFI418
50005ea6 t $LCFI420
50005ebe t $LCFI422
50005eee t $LCFI428
50005f0a t $LCFI430
50005f22 t $LCFI434
50005f3a t $LCFI436
50005f5a t $LCFI438
50005f72 t $LCFI440
50005f8a t $LCFI442
50005fa6 t $LCFI444
50005fca t $LCFI450
50005fe2 t $LCFI452
50006022 t $LCFI461
5000603c t $LCFI463
5000605a t $LCFI485
5000610a t $LCFI513
5000616e t $LCFI517
500061e2 t $LCFI521
5000623a t $LCFI0
5000624e t $LCFI2
5000631c t host_layer_ctrl
5000631e t $LCFI0
50006366 t $LCFI4
5000638c t $LCFI6
500063de t $LCFI10
50006446 t $LCFI15
50006486 t $LCFI18
500064a0 t reset_complete
500064a2 t $LCFI20
50006618 t reset_timeout
5000661a t $LCFI24
5000662a t $LCFI26
5000663a t $LCFI28
50006698 t rdabt_core_msg_dispatch
5000669c t $LCFI32
50006766 t $LCFI35
5000685a t $LCFI0
50006896 t $LCFI2
500068d2 t $LCFI4
500069ba t $LCFI8
500069ea t $LCFI11
50006af2 t $LCFI4
50006bb6 t $LCFI8
50006c52 t $LCFI12
50006cd2 t $LCFI16
50006d56 t $LCFI23
50006da2 t $LCFI0
50006e32 t $LCFI4
50006e9e t $LCFI7
50006f56 t $LCFI11
50006f9a t $LCFI14
50006ff4 t $LCFI18
500070ae t $LCFI24
500070da t $LCFI26
5000714a t $LCFI0
50007220 t $LCFI2
500072ea t $LCFI0
50007438 t $LCFI1
50007512 t $LCFI49
500075d8 t $LCFI52
50007636 t $LCFI0
5000765a t $LCFI6
50007686 t $LCFI9
500076be t $LCFI12
500076ea t $LCFI15
50007722 t $LCFI18
5000776e t $LCFI22
500077ae t $LCFI26
50007816 t $LCFI30
5000788a t $LCFI38
500078de t $LCFI41
5000792a t $LCFI44
500079e6 t $LCFI48
50007a22 t $LCFI51
50007a5e t $LCFI54
50007a8a t $LCFI57
50007b42 t $LCFI65
50007c2c t rdabt_l2cap_config_helper_connection_cmp
50007c38 t rdabt_l2cap_config_helper_cid_cmp
50007c56 t $LCFI0
50007c7a t $LCFI2
50007c8c t rdabt_l2cap_config_remove_all_inst_helper
50007c8e t $LCFI4
50007ca6 t $LCFI6
50007cc6 t $LCFI8
50007cf4 t $LCFI10
50007d1a t $LCFI12
50007d3a t $LCFI16
50007d52 t $LCFI18
50007dfe t $LCFI21
50007eee t $LCFI24
50007f7e t $LCFI28
5000801a t $LCFI32
50008102 t $LCFI0
5000815a t $LCFI12
500082b2 t $LCFI16
5000838a t $LCFI0
500083aa t $LCFI3
50008436 t $LCFI7
500084b2 t $LCFI11
5000851a t $LCFI15
50008530 t $LCFI17
5000866a t $LCFI21
50008776 t $LCFI25
50008816 t $LCFI29
50008996 t $LCFI33
50008a3e t $LCFI37
50008ada t $LCFI41
50008d46 t $LCFI45
50008dea t $LCFI49
50008e52 t $LCFI53
50008fbe t $LCFI57
5000922e t $LCFI65
50009354 t rdabt_l2_enc_insert_options
50009424 t rdabt_l2_enc_get_options
50009426 t $LCFI0
500095b8 t $LCFI4
50009932 t $LCFI8
50009e1c t $LCFI0
50009e42 t $LCFI5
50009f36 t $LCFI9
5000a0bc t $L33
5000a112 t $LCFI0
5000a138 t $LCFI3
5000a1c6 t $LCFI5
5000a200 t l2cap_layer_startup
5000a202 t $LCFI7
5000a250 t l2cap_layer_shutdown
5000a252 t $LCFI10
5000a2c4 t $LCFI14
5000a2f6 t $LCFI16
5000a30a t $LCFI0
5000a32e t $LCFI7
5000a35e t $LCFI13
5000a3a6 t $LCFI0
5000a4a6 t $LCFI5
5000a4c6 t $LCFI8
5000a4e6 t $LCFI11
5000a520 t $LCFI15
5000a54c t $LCFI17
5000a55e t $LCFI19
5000a5bc t $LCFI22
5000a5da t $LCFI24
5000a62a t $LCFI27
5000a6a6 t $LCFI31
5000a702 t $LCFI43
5000a7b6 t $LCFI51
5000a806 t $LCFI57
5000a87e t $LCFI61
5000a8b2 t $LCFI76
5000a8ca t $LCFI78
5000aab8 t $LCFI2
5000ab32 t $LCFI7
5000ab8c t $LCFI10
5000aba8 t $LCFI12
5000abd6 t $LCFI16
5000abf2 t $LCFI18
5000ac9e t $LCFI20
5000acd6 t $LCFI34
5000ad1a t $LCFI38
5000adf6 t $LCFI42
5000ae34 t $LCFI44
5000af8e t $LCFI13
5000afa6 t $LCFI15
5000b026 t $LCFI32
5000b0aa t $LCFI2
5000b0e2 t $LCFI5
5000b192 t $LCFI0
5000b224 t $LCFI13
5000b268 t $LCFI15
5000b2ba t $LCFI31
5000b312 t $LCFI33
5000b33e t $LCFI0
5000b39e t $LCFI14
5000b3d6 t $LCFI8
5000b3ea t $LCFI10
5000b404 t $LCFI12
5000b422 t $LCFI14
5000b442 t $LCFI0
5000b458 t $LCFI2
5000b482 t $LCFI4
5000b4b2 t $LCFI7
5000b4da t $LCFI9
5000b50a t $LCFI12
5000b572 t $LCFI16
5000b5a6 t $LCFI19
5000b65a t $LCFI23
5000b69c t $LCFI26
5000b6e2 t $LCFI29
5000b74a t $LCFI31
5000b76e t $LCFI34
5000b79a t $LCFI36
5000b7c6 t $LCFI38
5000b80a t $LCFI41
5000b88a t $LCFI45
5000b946 t $LCFI49
5000b956 t $LCFI51
5000b9aa t $LCFI55
5000ba46 t $LCFI59
5000bace t $LCFI63
5000bba6 t $LCFI0
5000bbe2 t $LCFI6
5000bc62 t $LCFI13
5000bd42 t $LCFI0
5000bdf6 t $LCFI3
5000bfae t $LCFI6
5000c01e t $LCFI16
5000c03e t $LCFI18
5000c06a t $LCFI20
5000c07e t $LCFI22
5000c116 t $LCFI25
5000c1ee t $LCFI28
5000c20a t $LCFI38
5000c242 t $LCFI40
5000c26e t $LCFI61
5000c29a t $LCFI0
5000c2b2 t $LCFI2
5000c34a t $LCFI14
5000c39e t $LCFI18
5000c3e0 t $LCFI22
5000c436 t $LCFI26
5000c4f6 t $LCFI0
5000c52e t $LCFI3
5000c582 t $LCFI7
5000c662 t $LCFI10
5000c724 t $LCFI0
5000c748 t $LCFI6
5000c7c2 t $LCFI10
5000c7e2 t $LCFI12
5000c7fe t $LCFI14
5000c83e t $LCFI17
5000c84e t $LCFI22
5000c91a t $LCFI26
5000c94c t $LCFI28
5000c9b6 t $LCFI30
5000c9e2 t $LCFI32
5000ca22 t $LCFI34
5000ca46 t $LCFI36
5000ca7a t $LCFI38
5000cabc t $LCFI41
5000caee t $LCFI45
5000cb32 t $LCFI49
5000cbda t $LCFI51
5000cbfa t $LCFI53
5000cc7e t $LCFI56
5000cca6 t $LCFI58
5000cd28 t $LCFI61
5000cd4a t $LCFI63
5000cd88 t $LCFI65
5000cdc6 t $LCFI67
5000ce2e t $LCFI70
5000ce52 t $LCFI72
5000ce96 t $LCFI74
5000ceb6 t $LCFI76
5000cf1a t $LCFI87
5000cfe4 t $LCFI91
5000d032 t $LCFI95
5000d092 t $LCFI99
5000d0b2 t $LCFI101
5000d156 t $LCFI111
5000d1c2 t $LCFI114
5000d232 t $LCFI118
5000d272 t $LCFI122
5000d30e t $LCFI126
5000d344 t $L249
5000d3d2 t $LCFI130
5000d3e2 t $LCFI132
5000d49a t $LCFI136
5000d4c2 t $LCFI138
5000d4ea t $LCFI140
5000d5bc t $LCFI144
5000d600 t $LCFI147
5000d6a2 t $LCFI151
5000d7b2 t $LCFI155
5000d80c t $LCFI159
5000d830 t $LCFI161
5000d86e t $LCFI163
5000d8ac t $LCFI167
5000d8ea t $LCFI170
5000d93e t $LCFI174
5000da8a t $LCFI178
5000db2a t $LCFI181
5000db48 t $LCFI184
5000db94 t $LCFI187
5000dd26 t $LCFI191
5000dd40 t $LCFI193
5000dd5a t $LCFI195
5000de06 t $LCFI198
5000deee t $LCFI201
5000df46 t $LCFI204
5000dff2 t $LCFI208
5000e04a t $LCFI211
5000e096 t $LCFI213
5000e0d6 t $LCFI216
5000e1ec t $LCFI220
5000e298 t $LCFI224
5000e2b2 t $LCFI226
5000e35a t $LCFI230
5000e582 t $LCFI234
5000e6b6 t $LCFI238
5000e782 t $LCFI242
5000e8a2 t $LCFI246
5000e962 t $LCFI249
5000e9ea t $LCFI253
5000ea8a t $LCFI257
5000eb3e t $LCFI261
5000eb7a t $LCFI265
5000eb9a t $LCFI267
5000ebb8 t $LCFI269
5000ed3c t $LCFI273
5000ee6c t $LCFI277
5000ee92 t $LCFI279
5000f0c2 t $LCFI283
5000f132 t $LCFI286
5000f232 t $LCFI290
5000f272 t $LCFI292
5000f35a t $LCFI296
5000f3de t $LCFI300
5000f56e t $LCFI304
5000f632 t $LCFI308
5000f646 t $LCFI310
5000f6ee t $LCFI314
5000f76e t $LCFI318
5000f7f6 t $LCFI322
5000f8d8 t $LCFI326
5000f9a2 t $LCFI330
5000fa36 t $LCFI333
5000fa62 t $LCFI336
5000fa9e t $LCFI0
5000fb0a t $LCFI3
5000fb1a t $LCFI5
5000fb2e t $LCFI7
5000fb86 t $LCFI11
5000fc32 t $LCFI14
5000fc5e t $LCFI16
5000fc7e t $LCFI18
5000fc9e t $LCFI20
5000fce0 t $LCFI22
5000fd4e t $LCFI25
5000fdb6 t $LCFI28
5000fdc6 t $LCFI30
5000fdd6 t $LCFI32
5000ff1e t $LCFI0
5000ff92 t $LCFI4
5001001e t $LCFI8
50010196 t $LCFI3
5001021a t $LCFI5
50010246 t $LCFI7
5001028e t $LCFI11
500102cc t $LCFI13
5001030e t $LCFI15
5001041a t $LCFI0
5001046a t $LCFI3
50010672 t $LCFI7
500106c2 t $LCFI10
5001070a t $LCFI13
5001073a t $LCFI15
5001075e t $LCFI17
5001078e t $LCFI19
500107ae t $LCFI0
50010826 t $LCFI0
5001085a t $LCFI4
5001088a t $LCFI6
500108ae t $LCFI9
500108ce t $LCFI11
5001093e t $LCFI15
5001095e t $LCFI17
50010a12 t $LCFI21
50010a4a t $LCFI24
50010ae8 t $LCFI27
50010b0a t $LCFI29
50010ca6 t $LCFI33
50010d52 t $LCFI37
50010dd2 t $LCFI41
50010e52 t $LCFI0
50010e78 t $LCFI2
50010eee t $LCFI5
50010f2a t $LCFI9
50010f7a t $LCFI13
50010fd6 t $LCFI17
5001102c t $LCFI20
5001105c t $LCFI22
50011096 t $LCFI24
500110de t $LCFI26
50011132 t $LCFI28
50011186 t $LCFI30
500111aa t $LCFI33
500111ca t $LCFI36
50011218 t $LCFI39
50011270 t $LCFI42
500112ae t $LCFI45
50011300 t $LCFI48
5001133a t $LCFI51
500113f2 t $LCFI14
50011442 t $LCFI18
500114a2 t $LCFI22
500114de t $LCFI24
50011526 t $LCFI28
50011576 t $LCFI32
50011602 t $LCFI36
50011624 t $LCFI39
500116aa t $LCFI0
5001170a t $LCFI4
5001175e t $LCFI6
500117e8 t $LCFI20
5001186a t $LCFI24
500118d0 t $LCFI28
500118fa t $LCFI30
500119ae t $LCFI34
500119fa t $LCFI38
50011a26 t $LCFI42
50011ab4 t $LCFI64
50011aee t $LCFI67
50011d86 t $LCFI71
50012082 t $LCFI79
500122ca t $LCFI83
5001234a t $LCFI90
500123ea t $LCFI94
50012466 t $LCFI97
50012556 t $LCFI101
5001263a t $LCFI105
50012916 t $LCFI109
5001296e t $LCFI113
50012b12 t $LCFI117
50012b4e t $LCFI120
50012f6e t $LCFI124
500131e2 t $LCFI128
50013296 t $LCFI0
5001331a t $LCFI3
50013496 t $LCFI7
500134f8 t $LCFI10
50013536 t $LCFI12
500135ba t $LCFI15
500135f4 t $LCFI18
5001361a t $LCFI20
5001378e t $LCFI24
500138c6 t $LCFI28
500138d8 t $LCFI30
5001395a t $LCFI32
500139a0 t $LCFI36
500139c8 t $LCFI39
500139fe t $LCFI42
50013a74 t $LCFI46
50013b0a t $LCFI50
50013b8e t $LCFI54
50013c26 t $LCFI58
50013c9c t $LCFI62
50013cc4 t $LCFI64
50013d26 t $LCFI67
50013d5a t $LCFI69
50013ea4 t $LCFI73
50013f86 t $LCFI77
50013fe2 t $LCFI81
500140fe t $LCFI85
500141ba t $LCFI89
5001433a t $LCFI93
50014476 t $LCFI97
500144f2 t $LCFI0
50014514 t $LCFI2
50014554 t $LCFI5
50014592 t $LCFI8
5001478e t $LCFI0
5001498a t $LCFI4
50014a92 t $LCFI8
50014ad6 t $LCFI12
50014af2 t $LCFI14
50014b4e t $LCFI16
50014b72 t $LCFI18
50014b8e t $LCFI20
50014bd0 t $LCFI22
50014c0a t $LCFI24
50014cfe t $LCFI28
50014dda t $LCFI32
50014f12 t $LCFI36
50015036 t $LCFI40
50015136 t $LCFI44
50015190 t $LCFI48
50015202 t $LCFI52
5001526a t $LCFI54
50015308 t $LCFI58
5001538c t $LCFI62
500153e4 t $LCFI65
500154a8 t $LCFI69
50015502 t $LCFI74
50015552 t $LCFI76
50015586 t $LCFI80
500155da t $LCFI84
500156d2 t $LCFI88
5001570a t $LCFI92
500158ee t $LCFI96
50015c1e t $LCFI0
50015d1c t $LCFI4
50015d68 t $LCFI7
50015dd0 t $LCFI10
50015e08 t $LCFI13
50015ea2 t $LCFI16
50015fc2 t $LCFI20
500160de t $LCFI24
50016142 t $LCFI28
50016202 t $LCFI32
5001624a t $LCFI36
50016306 t $LCFI0
500163be t $LCFI2
5001641c t $LCFI4
50016438 t $LCFI5
50016452 t $LCFI6
5001666e t $LCFI8
5001676a t $LCFI10
50016850 t $LCFI14
500169c4 t $LCFI15
500169e4 t $LCFI17
50016b1a t $LCFI19
50016bf6 t $LCFI23
50016f26 t $LCFI27
500170b2 t $LCFI31
500170e8 t $LCFI34
50017202 t $LCFI42
50017252 t $LCFI46
5001728a t $LCFI50
50017326 t $LCFI54
500173c6 t $LCFI57
50017472 t $LCFI61
500174c2 t $LCFI65
500175e2 t $LCFI69
50017646 t $LCFI71
500176ea t $LCFI75
500177be t $LCFI81
500178fa t $LCFI0
50017928 t $LCFI3
500179a2 t $LCFI5
50017a9e t $LCFI8
50017ac4 t $LCFI11
50017b4a t $LCFI15
50017bae t $LCFI19
50017bf6 t $LCFI23
50017c32 t $LCFI26
50017e1e t $LCFI30
50017f22 t $LCFI33
50017f92 t $LCFI36
50018016 t $LCFI40
5001807e t $LCFI43
500180da t $LCFI47
5001818a t $LCFI51
500181c8 t $LCFI54
50018210 t $LCFI56
50018260 t $LCFI59
50018280 t $LCFI61
500182b6 t $LCFI64
50018330 t $LCFI67
500183be t $LCFI69
50018428 t $LCFI73
5001845e t $LCFI76
500184c4 t $LCFI79
50018522 t $LCFI83
500185ae t $LCFI87
50018626 t $LCFI90
500187b6 t $LCFI94
5001882a t $LCFI98
50018876 t $LCFI102
5001893c t lm_word_mul
50018942 t $LCFI0
500189cc t lm_word_mul_add
500189ce t $LCFI3
50018a68 t lm_n_num_bits
50018afa t $LCFI6
50018bb2 t $LCFI21
50018e2e t $LCFI24
50018f3e t $LCFI28
50018f56 t $LCFI30
50018fc2 t $LCFI34
5001907a t $LCFI37
500190ee t $LCFI50
500191f6 t $LCFI55
500192c2 t $LCFI63
500192f6 t $LCFI65
50019382 t $LCFI69
5001940a t $LCFI73
50019464 t $LCFI83
50019496 t $LCFI86
500194cc t lm_n_zero
500194ce t $LCFI89
500194ec t lm_n192_usub
500194ee t $LCFI91
50019534 t lm_n192_uadd
50019536 t $LCFI95
5001957c t lm_n192_rshift1
50019582 t $LCFI99
500195e8 t lm_n192_rshift
500195f2 t $LCFI101
50019680 t lm_n192_sqr
50019682 t $LCFI105
500197f2 t $LCFI109
50019804 t lm_n_copy
50019806 t $LCFI111
5001984a t $LCFI115
500198a0 t lm_n192_lshift1
500198a2 t $LCFI119
500198f6 t $LCFI123
5001991c t lm_n192_mod_add
5001991e t $LCFI126
500199ce t $LCFI130
50019a4c t T.125
50019a4e t $LCFI133
50019ac0 t lm_n192_mod_sub
50019ac2 t $LCFI137
50019b74 t T.126
50019b78 t $LCFI141
50019bcc t lm_n192_mod_lshift_quick
50019bce t $LCFI144
50019d10 t lm_n192_mod_lshift1_quick
50019d12 t $LCFI148
50019d98 t lm_sp_n192_n_mod
50019d9a t $LCFI152
50019f90 t lm_n192_mod_sqr
50019f92 t $LCFI156
50019fcc t lm_n192_mod_mul
50019fce t $LCFI160
5001a0d6 t $LCFI164
5001a2ae t $LCFI168
5001a60a t $LCFI172
5001a654 t lm_n192_mod_inverse
5001a656 t $LCFI176
5001a87e t $LCFI180
5001a91e t $LCFI184
5001aa32 t $LCFI188
5001ab82 t $LCFI192
5001ac12 t $LCFI196
5001ac8a t $LCFI200
5001acf2 t $LCFI0
5001ad22 t $LCFI4
5001ad3e t $LCFI6
5001ade2 t $LCFI10
5001ae36 t $LCFI14
5001aea6 t $LCFI18
5001aeba t $LCFI20
5001aece t $LCFI22
5001aee2 t $LCFI24
5001aef6 t $LCFI26
5001af6a t $LCFI29
5001b026 t $LCFI33
5001b066 t $LCFI35
5001b0f2 t $LCFI37
5001b196 t $LCFI41
5001b266 t $LCFI45
5001b348 t $LCFI49
5001b37c t $LCFI51
5001b3ae t $LCFI53
5001b51e t $LCFI57
5001b5d6 t $LCFI61
5001b778 t $LCFI65
5001b7a0 t $LCFI67
5001b7b6 t $LCFI69
5001b7da t $LCFI71
5001b800 t $LCFI74
5001b868 t $LCFI78
5001b8c2 t $LCFI81
5001b982 t $LCFI85
5001bad4 t $LCFI89
5001bb3a t $LCFI93
5001bb8e t $LCFI96
5001bc36 t $LCFI100
5001bd00 t $LCFI103
5001bf96 t $LCFI107
5001c0e2 t $LCFI111
5001c192 t $LCFI115
5001c2ee t $LCFI119
5001c546 t $LCFI123
5001c6d6 t $LCFI127
5001c9ce t $LCFI0
5001caaa t $LCFI4
5001cabe t $LCFI6
5001cb02 t $LCFI10
5001cb1a t $LCFI12
5001cb5a t $LCFI15
5001cb8a t $LCFI18
5001cbbe t $LCFI21
5001cbee t $LCFI24
5001cc52 t $LCFI28
5001ccf2 t $LCFI32
5001cd8a t $LCFI36
5001ce26 t $LCFI40
5001ce62 t $LCFI43
5001ced6 t $LCFI47
5001cf42 t $LCFI50
5001d032 t $LCFI54
5001d122 t $LCFI58
5001d19e t $LCFI62
5001d236 t $LCFI66
5001d27c t $LCFI69
5001d2fe t $LCFI73
5001d45e t $LCFI77
5001d4ae t $LCFI80
5001d536 t $LCFI84
5001d66a t $LCFI88
5001d826 t $LCFI92
5001d868 t $LCFI96
5001d926 t $LCFI100
5001d9aa t $LCFI0
5001d9f4 t $LCFI23
5001da08 t $LCFI35
5001da1e t $LCFI37
5001dac2 t $LCFI41
5001dada t $LCFI0
5001dc06 t $LCFI76
5001dd02 t $LCFI79
5001de76 t $LCFI83
5001dfca t $LCFI96
5001e0bc t $LCFI100
5001e214 t $LCFI104
5001e31e t $LCFI108
5001e3e6 t $LCFI110
5001e4c2 t $LCFI112
5001e566 t $LCFI4
5001e656 t $LCFI12
5001e6b8 t LSLCASS_SET_FREQ_UNUSED
5001e744 t LSLCass_Device_Update_Notification
5001e746 t $LCFI15
5001e76a t $LCFI17
5001ea8e t $LCFI21
5001eaf4 t LSLCass_Eval_Reuse
5001eaf6 t $LCFI23
5001eb8e t $LCFI26
5001ec26 t $LCFI30
5001ecf2 t $LCFI34
5001ed2e t $LCFI0
5001ed8e t $LCFI3
5001ee82 t $LCFI7
5001eea4 t $LCFI9
5001eec8 t $LCFI11
5001eee2 t $LCFI13
5001ef7e t $LCFI8
5001f03e t $LCFI11
5001f0f6 t $LCFI21
5001f24a t $LCFI24
5001f392 t $LCFI27
5001f4c2 t $LCFI2
5001f512 t $LCFI12
5001f55a t $LCFI16
5001f58a t $LCFI24
5001f724 t $LCFI28
5001f73e t $LCFI30
5001f768 t $LCFI32
5001f790 t mgr_generate_eir
5001f792 t $LCFI34
5001f7e6 t $LCFI37
5001fbac t rdabt_manager_layer_shutdown
5001fbb4 t $LCFI41
5001fc04 t $LCFI43
5001fc9c t $LCFI47
5001fcae t $LCFI49
5001fce6 t $LCFI51
5001fd1a t $LCFI57
5001fd52 t $LCFI60
5001fd6a t $LCFI66
5001fdc0 t mgr_set_scan_mode
5001fdc2 t $LCFI70
5001fe5c t $LCFI73
5001fe84 t $LCFI75
5001fea2 t $LCFI83
5001fec2 t $LCFI0
5001ff6a t $LCFI4
5001ffd6 t $LCFI8
5002007a t $LCFI12
500200aa t $LCFI14
50020112 t $LCFI18
5002012e t $LCFI26
5002015a t $LCFI29
500201a2 t $LCFI0
50020208 t rdabt_mgr_inquiry_complete
5002020a t $LCFI4
5002025e t $LCFI8
50020292 t $LCFI10
500205ca t $LCFI14
50020616 t $LCFI17
500206a0 t rdabt_mgr_inquiry_timeout
500206a2 t $LCFI21
500206ea t $LCFI25
5002074e t $LCFI0
50020796 t $LCFI3
500207c2 t $LCFI6
500207f6 t $LCFI8
50020846 t $LCFI15
5002089a t $LCFI19
500208ee t $LCFI26
5002093a t $LCFI30
50020992 t $LCFI37
500209ee t $LCFI44
50020a0e t $LCFI46
50020a52 t $LCFI50
50020a8a t $LCFI54
50020ab6 t $LCFI56
50020ad2 t $LCFI58
50020ddc t $LCFI9
50020e52 t $LCFI13
50020ee2 t $LCFI17
50020f42 t $LCFI0
50020fae t $LCFI7
50020fde t $LCFI16
50021082 t $LCFI23
5002110a t $LCFI27
500211d2 t $LCFI31
50021206 t $LCFI33
5002124e t $LCFI42
500212f2 t $LCFI46
50021352 t $LCFI53
500213f6 t $LCFI57
500214fe t $LCFI63
50021576 t $LCFI67
5002158a t $LCFI69
50021682 t $LCFI73
5002174a t $LCFI77
50022102 t $LCFI85
500221a6 t $LCFI89
500221da t $LCFI91
5002222c t $LCFI0
5002228c t AccessRequestComplete
5002228e t $LCFI2
500222e8 t $LCFI5
5002230c t ProcessEncryptionRequest
5002230e t $LCFI7
50022380 t IOCapabilityReply
50022382 t $LCFI11
50022422 t $LCFI15
50022b0a t $LCFI21
50022b26 t $LCFI23
50022b4a t $LCFI32
50022b8e t $LCFI35
50022be2 t $LCFI38
50022c36 t $LCFI41
50022d08 t ProcessAccessRequest
50022d0a t $LCFI45
50022ea8 t $LCFI49
50022f04 t $LCFI51
50022f5e t $LCFI53
50023042 t $LCFI8
5002307e t $LCFI2
500230a6 t $LCFI9
500230da t $LCFI12
50023166 t $LCFI45
500231c2 t $LCFI151
500232a6 t $LCFI30
500232fc t $LCFI2
5002330e t $LCFI4
50023366 t $LCFI7
500233b2 t $LCFI10
500233d6 t $LCFI12
500233fe t $LCFI15
5002342a t $LCFI17
500234b4 t $LCFI0
5002352a t $LCFI3
5002354a t $LCFI5
50023562 t $LCFI7
5002359a t $LCFI9
500235ae t $LCFI11
500235de t $LCFI14
50023600 t rdabt_get_mgr_unconnected_device
50023636 t $LCFI0
5002366a t $LCFI2
5002367e t $LCFI4
50023690 t rdabt_get_mgr_device_info
50023692 t $LCFI6
500236d6 t $LCFI10
500236f6 t $LCFI12
50023716 t $LCFI14
50023740 t rdabt_get_mgr_idle_device
50023742 t $LCFI16
50023790 t rdabt_get_mgr_inquiry_device_info
50023792 t $LCFI20
500237d6 t $LCFI26
500237fa t $LCFI28
500238b2 t $LCFI32
500238fe t $LCFI36
5002393e t $LCFI38
5002395a t $LCFI40
500239ae t $LCFI44
500239ca t $LCFI46
50023a26 t $LCFI50
50023a46 t $LCFI52
50023a5e t $LCFI54
50023a86 t $LCFI57
50023aaa t $LCFI60
50023ad2 t $LCFI63
50023aee t $LCFI65
50023bb2 t $LCFI69
50023bee t $LCFI71
50023c2a t $LCFI74
50023c5a t $LCFI77
50023cea t $LCFI81
50023e04 t $L155
50023e2e t $LCFI85
50023f50 t $L164
50023f7e t $LCFI89
50023f8e t $LCFI91
50023fa2 t $LCFI93
50023fb2 t $LCFI95
50024062 t $LCFI2
50024072 t $LCFI13
50024082 t $LCFI15
50024096 t $LCFI0
500240ca t $LCFI2
500240e6 t $LCFI4
50024106 t $LCFI6
5002411a t $LCFI8
500241d2 t $LCFI12
500241f6 t $LCFI14
50024232 t $LCFI16
50024262 t $LCFI19
5002427a t $LCFI21
500242c6 t $LCFI23
50024306 t $LCFI25
50024348 t $LCFI27
5002435a t $LCFI29
500243c2 t $LCFI32
5002442a t $LCFI35
50024446 t $LCFI37
500244ba t $LCFI0
500244de t $LCFI2
500244fe t $LCFI4
50024522 t $LCFI6
5002453e t $LCFI10
5002455a t $LCFI12
5002458c t $LCFI14
500245b0 t $LCFI16
500245d2 t $LCFI18
50024600 t $LCFI21
5002463e t $LCFI24
50024674 t $LCFI28
500246b6 t $LCFI30
50024704 t $LCFI34
500247d6 t $LCFI36
5002483a t $LCFI0
5002484e t $LCFI2
50024866 t $LCFI6
500248da t $LCFI9
50024908 t rdabt_rfcomm_dlc_state_w4rl
5002490a t $LCFI13
50024998 t rdabt_rfcomm_dlc_state_w4pe
5002499a t $LCFI17
50024ab4 t rdabt_rfcomm_dlc_state_w4ua
50024ab6 t $LCFI21
50024c50 t rdabt_rfcomm_dlc_state_conn
50024c56 t $LCFI25
50024e90 t rdabt_rfcomm_dlc_state_closed
50024e92 t $LCFI29
500250ea t $L107
50025148 t rdabt_rfcomm_dlc_state_pn
5002514a t $LCFI33
500251ae t $LCFI37
50025216 t $LCFI0
50025236 t $LCFI2
50025254 t $LCFI4
5002527e t $LCFI7
50025290 t rdabt_rfcomm_entity_remove_pending_channel_helper
50025292 t $LCFI9
500252e8 t rdabt_rfcomm_entity_remove_pending_device
500252ea t $LCFI12
50025314 t rdabt_rfcomm_entity_bdaddr_cmp
50025318 t $LCFI14
50025330 t rdabt_rfcomm_entity_add_pending_channel
50025332 t $LCFI16
5002536a t $LCFI19
500253ba t $LCFI22
500253f6 t $LCFI25
5002551e t $L48
50025524 t $L47
5002552c t $L44
50025542 t $LCFI29
5002556a t $LCFI31
500255a8 t $LCFI0
50025618 t $LCFI2
50025688 t $LCFI4
500256f8 t $LCFI6
50025766 t $LCFI8
500257b6 t $LCFI11
500257ec t $LCFI14
500258aa t $LCFI18
50025972 t $LCFI0
5002598a t $LCFI2
500259fa t $LCFI6
50025b02 t $LCFI10
50025b30 t rdabt_rfcomm_l2cap_state_w4rl
50025b32 t $LCFI13
50025b5c t rdabt_rfcomm_l2cap_state_conn
50025b60 t $LCFI15
50025c40 t rdabt_rfcomm_l2cap_state_w4conn
50025c42 t $LCFI19
50025cf4 t rdabt_rfcomm_l2cap_state_idle
50025cf8 t $LCFI23
50025d96 t $LCFI0
50025daa t $LCFI2
50025dd6 t $LCFI5
50025e1a t $LCFI9
50025e8e t $LCFI13
50025eae t $LCFI15
50025eca t $LCFI17
50025eee t $LCFI20
50025f36 t $LCFI24
50025f62 t $LCFI27
50025f92 t $LCFI30
50025fc6 t $LCFI33
50026102 t $LCFI0
50026136 t $LCFI4
50026156 t $LCFI8
500261c2 t $LCFI12
5002624a t $LCFI18
500262b6 t $LCFI22
50026336 t $LCFI28
5002637e t $LCFI32
500263f6 t $LCFI36
5002646a t $LCFI40
500264d2 t $LCFI48
5002652a t $LCFI52
50026572 t $LCFI56
500265d2 t $LCFI71
5002664e t $LCFI75
500266d2 t $LCFI79
5002674c t $LCFI85
500267c4 t $L135
500267d8 t $LCFI0
50026822 t $LCFI2
50026846 t $LCFI4
5002687e t $LCFI8
5002694a t $LCFI12
5002698a t $LCFI15
50026a4e t $LCFI0
50026a78 t $LCFI2
50026aa0 t $LCFI4
50026aba t $LCFI0
50026cb2 t $LCFI4
50026dce t $L33
50026de2 t $LCFI8
50026efe t $LCFI12
500271ae t $LCFI16
5002733a t $LCFI20
50027496 t $LCFI24
500274d8 t sdp_execute_sub_task
500274de t $LCFI0
50027522 t $LCFI3
5002757a t $LCFI7
500275d2 t $LCFI11
50027636 t $LCFI15
500276da t $LCFI19
50027726 t $LCFI0
50027786 t $LCFI4
500277f6 t $LCFI8
5002781a t $LCFI11
50027b3e t $LCFI15
50027bf0 t $LCFI0
50027c7a t $LCFI2
50027cd2 t $LCFI0
50027d12 t $LCFI5
50027d72 t $LCFI12
50027dde t $LCFI16
50027f4c t $LCFI24
50027fee t $LCFI40
5002806e t $LCFI48
50028192 t $LCFI0
5002850c t $LCFI4
500285ac t $LCFI6
500285ca t $LCFI11
5002861e t $LCFI15
50028694 t T.15
50028696 t $LCFI19
500287fe t $LCFI27
500288b6 t $LCFI0
50028926 t $LCFI3
500289ee t $LCFI7
50028a6e t $LCFI11
50028b36 t $LCFI15
50028c02 t $LCFI19
50028d3e t $LCFI23
50028e12 t $LCFI27
50028ec2 t $LCFI31
50028f3a t $LCFI33
50028f4e t $LCFI35
50028fd2 t $LCFI39
50029124 t $LCFI43
5002924e t $LCFI46
50029312 t $LCFI0
5002934e t $LCFI3
5002935e t $LCFI5
50029382 t $LCFI7
500293fe t $LCFI11
50029436 t $LCFI14
50029486 t $LCFI17
500294da t $LCFI21
5002950e t $LCFI23
5002961e t $LCFI31
500296ce t $L63
500296d8 t $L62
5002971a t $LCFI35
50029752 t $LCFI32
50029a8e t $LCFI5
50029af2 t $LCFI11
50029b1e t $LCFI13
50029ba8 t $LCFI15
5002a07c t $LCFI23
5002a3be t $LCFI0
5002a3d4 t $LCFI2
5002a56e t $LCFI8
5002a62a t $LCFI0
5002a672 t $LCFI3
5002a6f6 t $LCFI15
5002a9e6 t $LCFI0
5002aa1a t $LCFI2
5002aa56 t $LCFI4
5002aaca t $LCFI7
5002aae2 t $LCFI9
5002aaf2 t $LCFI11
5002ab02 t $LCFI13
5002ab12 t $LCFI15
5002ab82 t $LCFI17
5002abfa t $LCFI23
5002ad3e t $LCFI27
5002ad5a t $LCFI29
5002ad6e t $LCFI31
5002add8 t $LCFI33
5002adf6 t $LCFI35
5002ae16 t $LCFI38
5002ae36 t $LCFI40
5002ae86 t $LCFI44
5002aea6 t $LCFI46
5002aed6 t $LCFI48
5002af76 t $LCFI52
5002afd6 t $LCFI56
5002b09a t $LCFI63
5002b0e6 t $LCFI67
5002b126 t $LCFI70
5002b136 t $LCFI72
5002b146 t $LCFI74
5002b15e t $LCFI77
5002b17a t $LCFI80
5002b196 t $LCFI83
5002b2b6 t $LCFI87
5002b2c6 t $LCFI89
5002b2de t $LCFI92
5002b302 t $LCFI94
5002b326 t $LCFI96
5002b34e t $LCFI98
5002b3a2 t $LCFI101
5002b3f2 t $LCFI104
5002b416 t $LCFI106
5002b43a t $LCFI108
5002b572 t $LCFI112
5002b6aa t $LCFI120
5002b6e8 t $LCFI0
5002b79a t $LCFI4
5002b85e t $LCFI8
5002ba2a t $LCFI12
5002bad2 t $LCFI15
5002bafa t $LCFI17
5002bb62 t $LCFI21
5002bbb0 t _Host_Timeout
5002bbb6 t $LCFI23
5002bc5a t $LCFI4
5002bc98 t $LCFI7
5002bcee t $LCFI11
5002bd26 t $LCFI25
5002bdee t $LCFI8
5002bede t $LCFI11
5002bf8a t $LCFI19
5002c026 t $LCFI23
5002c154 t $L208
5002c1d4 t $LCFI31
5002c202 t $LCFI34
5002c22e t $LCFI39
5002c2fe t $LCFI43
5002c42e t $LCFI47
5002c4c4 t $LCFI75
5002c626 t $LCFI78
5002c72a t $LCFI82
5002c798 t $LCFI15
5002c7cc t $LCFI17
5002c85a t $LCFI2
5002c8ce t $LCFI6
5002c92a t $LCFI10
5002c94a t $LCFI17
5002ca04 t $LCFI9
5002ca8e t $LCFI20
5002cb2a t $LCFI7
5002cbea t $LCFI12
5002ccc2 t $LCFI14
5002cda8 t $LCFI2
5002ce48 t $LCFI0
5002cef6 t $LCFI12
5002cf7e t $LCFI16
5002d17a t $LCFI6
5002d1d2 t $LCFI8
5002d30e t $LCFI12
5002d4e6 t $LCFI51
5002d57c t $LCFI55
5002d596 t $LCFI70
5002d5d4 t $LCFI73
5002d5fc t $LCFI0
5002d676 t $LCFI3
5002d6f6 t $LCFI0
5002d812 t $LCFI6
5002d8ce t $LCFI10
5002d91a t $LCFI13
5002d9de t $LCFI0
5002da9c t Lelcdl_Find_Handle
5002da9e t $LCFI2
5002dade t $LCFI5
5002dcde t $LCFI9
5002e80e t $LCFI13
5002e936 t $LCFI17
5002ecce t $LCFI21
5002f486 t $LCFI25
5002f51e t $LCFI27
5002f584 t $LCFI30
5002f622 t $LCFI0
5002f6aa t $LCFI0
5002f8c2 t $LCFI15
5002f91a t $LCFI114
5002f968 t $LCFI0
5002f9b2 t $LCFI4
5002f9dc t $LCFI8
5002fa20 t $LCFI12
5002fa86 t $LCFI16
5002fb7a t $LCFI0
5002fc24 t $L14
5002fcd0 t $L38
5002fcfe t $LCFI2
5002fd6e t $LCFI31
5002fdda t $L195
5002fe12 t $LCFI35
5002fe92 t $LCFI0
5002feba t $LCFI4
5002ff06 t $LCFI7
5002ff46 t $LCFI11
5002ff9e t $LCFI15
5002ffde t $LCFI22
500300a6 t $LCFI25
5003016e t $LCFI0
5003018a t $LCFI2
500301f2 t $LCFI0
50030366 t $LCFI8
500303b6 t $LCFI18
5003045e t $LCFI29
5003050a t $LCFI33
5003055e t $LCFI35
500305e6 t $LCFI13
500306b0 t $LCFI17
50030766 t $LCFI21
500309ba t $LCFI33
500309fe t $LCFI4
50030b16 t $LCFI2
50030b66 t $LCFI4
50030c42 t $LCFI8
50030c6e t $LCFI10
50030cc2 t $LCFI14
50030cf2 t $LCFI17
50030d7a t $LCFI21
50030daa t $LCFI23
50030e22 t $LCFI27
50030e72 t $LCFI30
50030efa t $LCFI33
50030f18 t $LCFI35
50030f32 t $LCFI41
50030fa2 t $LCFI45
50030fea t $LCFI49
50031092 t $LCFI53
500310b6 t $LCFI55
50031332 t $LCFI59
5003143e t $LCFI0
50031492 t $LCFI6
50031512 t $LCFI12
5003159e t $LCFI16
500315b6 t $LCFI18
50031736 t $LCFI22
50031776 t $LCFI46
500317f2 t $LCFI30
50031802 t $LCFI53
5003184a t $LCFI0
5003185e t $LCFI2
500318ae t $LCFI8
5003191a t $LCFI0
50031938 t $LCFI2
50031962 t $LCFI5
500319da t $LCFI9
50031a12 t $LCFI12
50031b2e t $LCFI16
50031c66 t $LCFI20
50031cf4 t $LCFI24
50031d82 t $LCFI28
50031e0e t $LCFI32
50031e9a t $LCFI36
50031f96 t $LCFI40
50032066 t $L96
500320e0 t $LCFI0
50032226 t $LCFI2
5003227e t $LCFI7
50032376 t $LCFI0
500323d6 t $LCFI3
500324b2 t $LCFI7
500325c6 t $LCFI0
500326a2 t $LCFI4
5003278a t $LCFI8
50032840 t rdabt_rfcomm_se_portnum_cmp
50032852 t $LCFI0
50032872 t $LCFI2
50032886 t $LCFI4
500328c2 t $LCFI7
500328ec t rdabt_rfcomm_se_addrdlci_cmp
500328ee t $LCFI10
5003291a t $LCFI14
50032956 t $LCFI17
50032986 t $LCFI20
5003299e t $LCFI22
50032a52 t $LCFI26
50032ad2 t $LCFI30
50032b6a t $LCFI34
50032bfc t $LCFI38
50032d08 t $LCFI42
50032f8e t $LCFI46
50033012 t $LCFI50
500330e2 t $LCFI54
5003320e t $LCFI0
50033292 t $LCFI0
50033372 t $LCFI0
500333c2 t $LCFI2
500333d4 t $LCFI4
500333e6 t $LCFI6
50064f3c r C.61.9584
50064f50 r C.60.9583
50064fb0 r C.58.9728
50064fb8 r C.48.9568
50064fbc r C.47.9560
500652f0 r lm_default_priv_key_192
50065350 r lm_sp_p192_field
5006536c r lm_sp_p192_data
5006577c r C.89.11802
5006598c r dlc_state
50065cd8 r C.44.8476
50065ce8 r C.31.9989
50065cf0 r C.29.9967
50066f00 r CSWTCH.47
50066f44 r C.2.7269
50066f68 r C.1.7268
5006706c r C.12.3746
500670d4 r C.7.3406
50067134 r C.21.4970
5006713c r C.28.5268
50067144 r CSWTCH.80
50067148 r rdabt_mgr_hci2bt_error_table.2429
500672b8 r crctable
500673b8 r l2cap_state
500673c8 r attribute_handle
500673d8 r SDP_BASE_UUID
5006869c t $LCFI0
500687cc t $LCFI0
500688de t $LCFI7
500689ce t $LCFI11
50068a60 t hal_BootSectorValidateStruct
50068a8c t $LCFI2
500691c2 t $LCFI0
500691e0 t $LCFI4
5006920e t $LCFI1
5006bde6 t $LCFI0
5006be2a t $LCFI12
5006be66 t $LCFI14
5006bea2 t $LCFI16
5006bede t $LCFI18
5006bf16 t $LCFI38
5006bf3e t $LCFI41
5006bf66 t $LCFI44
5006bf82 t $LCFI46
5006bfb8 t _ZL11init_ext_iov
5006bfba t $LCFI49
5006c006 t $LCFI0
5006c104 t _ZL4beepv
5006c108 t $LCFI3
5006c148 t _ZL25init_board_after_power_onv
5006c14a t $LCFI6
5006c16c t $LCFI8
5006c212 t $LCFI12
5006c23a t $LCFI14
5006c25a t $LCFI17
5006c27a t $LCFI20
5006c28a t $LCFI22
5006c29a t $LCFI24
5006c422 t $LCFI27
5006c432 t $LCFI29
5006c5ae t $LCFI33
5006c670 t _ZL17pin_btn_feed_readv
5006c672 t $LCFI37
5006c690 t T.180
5006c692 t $LCFI39
5006c86e t $LCFI42
5006c932 t $L116
5006c972 t $LCFI46
5006c9dc t T.181
5006c9de t $LCFI50
5006ca0a t $LCFI57
5006cbc8 t _ZL10init_boardv
5006cbca t $LCFI61
5006cc02 t $LCFI0
5006cd1a t $LCFI3
5006cd46 t $LCFI6
5006cd56 t $LCFI8
5006cda6 t $LCFI12
5006cde2 t $LCFI16
5006ce1e t $LCFI20
5006ce86 t $LCFI24
5006ceae t $LCFI27
5006ceea t $LCFI30
5006cf22 t $LCFI33
5006cf5a t $LCFI36
5006d00c t $LCFI40
5006d08e t $LCFI44
5006d12c t $LCFI48
5006d1c2 t $LCFI52
5006d210 t T.268
5006d212 t $LCFI56
5006d292 t $LCFI64
5006d40c t _ZL11init_ui_lcdv
5006d40e t $LCFI68
5006d444 t T.269
5006d446 t $LCFI72
5006d622 t $LCFI75
5006d708 t $L216
5006d7ce t $LCFI79
5006d87e t $LCFI83
5006d8b6 t $LCFI87
5006d8f8 t $LCFI91
5006db84 t $L263
5006dffa t $LCFI95
5006e26e t $LCFI9
5006e2ea t $LCFI12
5006e362 t $LCFI16
5006e3b0 t T.181
5006e3b2 t $LCFI7
5006e58e t $LCFI10
5006e618 t T.182
5006e61a t $LCFI18
5006e67a t $LCFI21
5006e746 t $LCFI25
5006e7b6 t $LCFI0
5006e8f0 t _ZL12init_batteryv
5006e8f2 t $LCFI3
5006e914 t _ZL19init_battery_statusv
5006e916 t $LCFI6
5006e992 t $LCFI10
5006e9ca t $LCFI17
5006ea12 t $LCFI20
5006eaa2 t $LCFI27
5006ec28 t T.234
5006ec2a t $LCFI31
5006ee04 t T.233
5006ee08 t $LCFI42
5006f0b2 t $LCFI46
5006f104 t T.235
5006f106 t $LCFI50
5006f14e t $LCFI54
5006f3a8 t _ZL22battery_status_refreshi
5006f3aa t $LCFI58
5006f6be t $LCFI4
5006f86c t _ZL11wakeup_initv
5006f86e t $LCFI0
5006f900 t $LCFI4
5006f916 t $LCFI6
5006f94a t $LCFI9
5006f970 t _ZL19link_status_handleri
5006f972 t $LCFI12
5006fc40 t _ZL18on_language_changei
5006fc42 t $LCFI16
5006fc6c t _ZL12init_ui_linkv
5006fc6e t $LCFI18
5006fcee t $LCFI0
5006fd10 t $LCFI2
5006fd3a t $LCFI4
5006fda0 t _ZL17link_reg_after_txv
5006fda2 t $LCFI0
5006fdb8 t _ZL17link_reg_after_rxv
5006fdba t $LCFI2
5006fe0c t _ZL13init_link_regv
5006fe0e t $LCFI4
50070098 t _ZL15link_reg_rx_cmdhPht
5007009c t $LCFI27
50070364 t _ZL18link_reg_before_txv
50070366 t $LCFI64
50070624 t _ZL11frame_tx_okv
50070626 t $LCFI0
5007063c t _ZL9init_linkv
5007063e t $LCFI2
50070684 t _ZL13frame_rx_waitv
50070686 t $LCFI6
50070704 t _ZL8frame_rxv
50070706 t $LCFI10
50070772 t $LCFI14
50070848 t _ZL8frame_txv
5007084a t $LCFI18
500708f8 t _ZL11thread_linkPKv
500708fa t $LCFI22
500709b8 t _ZL10init_debugv
500709ba t $LCFI0
50070a20 t _ZL10task_debugPKv
50070a22 t $LCFI4
50070a5e t $LCFI0
50070b0c t _ZL9init_commv
50070b0e t $LCFI4
50070b44 t _ZL11thread_commPKv
50070b46 t $LCFI12
50070bce t $LCFI0
50070bee t $LCFI2
50070c88 t _ZL9on_usb_rxPhi
50070c8a t $LCFI10
50070cd8 t _GLOBAL__I_commUsb
50070cda t $LCFI14
50070d12 t $LCFI0
50070d76 t $LCFI7
50070db2 t $LCFI11
50070df2 t $LCFI15
50070e26 t $LCFI18
50070e70 t _ZL7init_btv
50070e72 t $LCFI22
500710f6 t $LCFI26
50071130 t _ZL8on_bt_rxPhi
50071132 t $LCFI33
50071182 t $LCFI37
500711c4 t _ZL5bt_txPhi
500711cc t $LCFI41
500711e2 t $LCFI54
50071256 t $LCFI58
50071450 t _ZL8init_cmdv
50071452 t $LCFI18
5007149a t $LCFI4
500714d6 t $LCFI19
500715d0 t T.220
500715d2 t $LCFI22
50071650 t _ZL14init_ui_enginev
50071652 t $LCFI26
50071764 t T.222
50071766 t $LCFI45
50071790 t T.223
50071794 t $LCFI48
50071a3e t $LCFI52
50071bce t $LCFI0
50071d02 t $LCFI3
50071d3c t _ZL14on_stb_timeoutv
50071d42 t $LCFI7
50071d56 t $LCFI9
50071d8a t $LCFI12
50071da6 t $LCFI15
500720f4 t T.197
500720f6 t $LCFI19
5007216e t $LCFI27
50072300 t _ZL15init_prn_enginev
50072302 t $LCFI31
5007233a t $LCFI3
5007243e t $LCFI0
5007246e t $LCFI4
5007249a t $LCFI0
50072546 t $LCFI0
50072564 t T.33
50072572 t $LCFI3
50072588 t _ZL12init_head_txv
5007258c t $LCFI5
50072612 t $LCFI0
5007264c t _ZL11hal_dma_isrv
50072650 t $LCFI0
500726ae t $LCFI2
500726e4 t _ZL12init_prn_cmdv
500726e6 t $LCFI0
500726fc t _ZL7cmd_puthtPKvi
500726fe t $LCFI2
50072776 t $LCFI15
5007279a t $LCFI25
500727b4 t _ZL12init_ui_feedv
500727b6 t $LCFI0
50072830 t _ZL12feed_handleri
50072832 t $LCFI7
50072926 t $LCFI0
500729cc t _ZL8_wait_msi
500729ce t $LCFI3
50072a10 t _ZL9printcharPPci
50072a1c t _ZL6printsPPcS_ii
50072a1e t $LCFI0
50072ab0 t _ZL6printiPPciiiiii
50072ab2 t $LCFI4
50072b68 t _ZL9_vsprintfPPcS_Pv
50072b6a t $LCFI8
50072c82 t $L33
50072cb6 t $LCFI12
50072cca t $LCFI0
50072cea t $LCFI2
50072d62 t $LCFI0
50072d9a t $LCFI0
50072e16 t $LCFI2
50072e2a t $LCFI0
50072e52 t $LCFI2
50072ed6 t $LCFI6
50072f66 t $LCFI10
50072f92 t $LCFI0
50072fce t $LCFI5
50072fde t $LCFI7
50072ff2 t $LCFI9
50073002 t $LCFI0
50073012 t $LCFI2
50073022 t $LCFI4
50073056 t $LCFI2
50073066 t $LCFI6
5007307a t $LCFI0
500730dc t _ZL3outPFvPciEPKcz
500730de t $LCFI4
5007310e t $LCFI8
50073354 t _ZL10os_info_txPKv
50073356 t $LCFI12
50073382 t $LCFI0
500733ce t $LCFI0
5007342a t $LCFI0
5007343e t $LCFI0
5007345a t $LCFI0
5007346a t $LCFI5
500734ae t $LCFI16
500734d0 t _ZL8gpio_setPvi
50073508 t _ZL8gpio_getPv
50073586 t $LCFI12
500738d2 t $LCFI16
500738e0 t _ZL14gpio_get_input7PinName
500738e2 t $LCFI18
50073920 t _ZL15gpio_get_output7PinName
50073922 t $LCFI21
50073960 t T.55
5007396e t $LCFI24
50073986 t $LCFI30
50073ac2 t $LCFI0
50073afa t $LCFI4
50073b22 t $LCFI0
50073bb2 t $LCFI4
50073c0e t $LCFI13
50073c88 t _ZL8irq_gpioi
50073c90 t $LCFI0
50073ccc t _ZL9irq_gpio0v
50073cce t $LCFI2
50073cdc t _ZL9irq_gpio1v
50073cde t $LCFI4
50073cec t _ZL9irq_gpio2v
50073cee t $LCFI6
50073cfc t _ZL9irq_gpio3v
50073cfe t $LCFI8
50073d0c t _ZL9irq_gpio4v
50073d0e t $LCFI10
50073d1c t _ZL9irq_gpio5v
50073d1e t $LCFI12
50073d2c t _ZL9irq_gpio6v
50073d2e t $LCFI14
50073d3c t _ZL9irq_gpio7v
50073d3e t $LCFI16
50073d4c t _ZL9irq_gpio8v
50073d4e t $LCFI18
50073d5c t _ZL9irq_gpio9v
50073d5e t $LCFI20
50073d6c t _ZL10irq_gpio10v
50073d6e t $LCFI22
50073d7c t _ZL10irq_gpio11v
50073d7e t $LCFI24
50073d8c t _ZL10irq_gpio12v
50073d8e t $LCFI26
50073d9c t _ZL10irq_gpio13v
50073d9e t $LCFI28
50073dac t _ZL10irq_gpio14v
50073dae t $LCFI30
50073dbc t _ZL10irq_gpio15v
50073dbe t $LCFI32
50073dce t $LCFI34
50073df2 t $LCFI36
50073e2e t $LCFI39
50073e70 t $LCFI42
50073e88 t $LCFI44
50073e9c t T.24
50073e9e t $LCFI48
50073f86 t $LCFI56
50074042 t $LCFI2
50074086 t $LCFI12
500740ec t _ZL19DebugUartIrqHandlerv
50074158 t _ZL15Uart1IrqHandlerv
500742e2 t $LCFI0
500742f2 t $LCFI2
50074302 t $LCFI4
50074342 t $LCFI7
500743e6 t $LCFI11
50074626 t $LCFI23
5007468c t _ZL7pwm_setiii
5007468e t $LCFI5
50074702 t $LCFI9
5007471a t $LCFI17
50074776 t $LCFI27
50074792 t $LCFI32
500747d2 t $LCFI35
50074844 t $LCFI43
5007489a t $LCFI10
50075188 t T.866
50075196 t $LCFI14
500751ae t $LCFI20
5007539a t $LCFI0
500753c2 t $LCFI7
500753dc t _ZL9usb_writePci
500753de t $LCFI0
500753fe t $LCFI2
5007544a t $LCFI4
50075482 t $LCFI8
500755f0 t _ZL8_onUsbRxPhi
500755f2 t $LCFI16
5007568c t _ZL13event_handlerP10_COS_EVENT
5007568e t $LCFI20
500756cc t _ZL4initv
500756ce t $LCFI23
500757a0 t $LCFI0
500757d6 t $LCFI5
5007594e t $LCFI8
50075a22 t $LCFI17
50075a4c t hal_mgc_usb_highSpeed
50075a60 t hal_UsbResetTransfert
50075a88 t hal_UsbCallbackEp
50075a9a t $LCFI0
50075acc t hal_UsbCallbackInterface
50075ace t $LCFI2
50075b84 t $LCFI11
50075c4c t hal_UsbDisableEp
50075c4e t $LCFI15
50075cac t hal_UsbClrConfig
50075cae t $LCFI19
50075d50 t hal_UsbInit
50075d52 t $LCFI23
50075d86 t $LCFI26
50075db8 t hal_UsbConfig
50075dba t $LCFI32
50075e5e t $LCFI36
50075e7a t $LCFI38
50075e9a t $LCFI41
50075ef2 t $LCFI44
50075fb2 t $LCFI47
5007608e t $LCFI51
5007616c t hal_UsbContinueTransferDone
5007616e t $LCFI55
5007623c t hal_UsbEnableEp
50076240 t $LCFI59
5007633a t $LCFI63
50076396 t $LCFI65
500763de t $LCFI68
50076522 t $LCFI72
50076546 t $LCFI74
5007705c t hal_AnaGpadcMinAtp
500770a2 t $LCFI0
500770be t $LCFI2
500770ce t $LCFI6
5007715e t $LCFI10
5007718e t $LCFI13
50077272 t $LCFI17
500772a2 t $LCFI8
500772c2 t $LCFI10
500773f0 t pmd_EnableLowBattVoltShutdown
500773f2 t $LCFI6
50077428 t pmd_TuneCharger
5007742a t $LCFI9
5007747e t $LCFI13
50077500 t pmd_GetEffuseValue
50077502 t $LCFI17
5007752e t $LCFI20
5007756c t $LCFI27
50077602 t $LCFI30
5007762e t $LCFI36
50077692 t $LCFI39
5007770e t $LCFI43
500778e2 t $LCFI4
500779a8 t mssCallback
500779aa t $LCFI8
50077a22 t $LCFI10
50077a60 t mssSendEvent
50077a62 t $LCFI12
50077a80 t mssCallbackEp
50077a82 t $LCFI14
50077aa2 t $LCFI0
50077aba t $LCFI2
50077afe t $LCFI4
50077b32 t $LCFI7
50077b6e t $LCFI11
50077b9c t _ZL7str2hexPc
50077bce t $LCFI2
50077c60 t _ZL13event_handlerP10_COS_EVENT
50077c62 t $LCFI10
50077c72 t $LCFI12
50077cc2 t $LCFI16
50077d2c t _ZL4initv
50077d2e t $LCFI20
50077fb6 t $LCFI24
50077fc6 t $LCFI0
5007802e t $LCFI2
5007805a t $LCFI4
5007810c t $LCFI8
50078156 t $LCFI0
5007817a t $LCFI2
5007819e t $LCFI4
500781c2 t $LCFI6
50078226 t $LCFI8
500782b6 t $LCFI12
50078346 t $LCFI16
50078412 t $LCFI20
5007845e t $LCFI24
5007852a t $LCFI27
500785be t $LCFI0
500785ec t ServiceTaskEntry
500785ee t $LCFI2
50078640 t $LCFI2
5007867e t $LCFI0
5007873a t $LCFI0
500787be t $LCFI0
500787d6 t $LCFI0
500787ec t ap_ble_spp_write_cb
500787ee t $LCFI2
50078876 t $LCFI0
5007892a t $LCFI0
50078a72 t $LCFI4
50078b86 t $LCFI0
50078bae t $LCFI6
50078bf2 t $LCFI23
50078c1e t $LCFI39
50078c4e t $LCFI42
50078c7e t $LCFI6
50078c9a t $LCFI8
50078cb2 t $LCFI0
50078ce4 t $LCFI2
50078cf8 t _ZL8_wait_msi
50078cfa t $LCFI6
50078d32 t $LCFI0
50078d4a t $LCFI8
50078d6e t $LCFI4
50078da2 t $LCFI0
50078db2 t $LCFI4
50078dda t $LCFI4
50078dfe t $LCFI8
50078e2e t $LCFI10
50078e42 t $LCFI30
50078e6a t $LCFI35
50078e7a t $LCFI64
50078eca t $LCFI0
50078ee6 t $LCFI3
50078f00 t $LCFI6
50078f1e t $LCFI18
50078f3a t $LCFI21
50079066 t $LCFI0
500790e2 t $LCFI4
5007916a t $LCFI8
500791ee t $LCFI12
5007920a t $LCFI16
50079232 t $LCFI19
50079276 t $LCFI0
50079286 t $LCFI4
500792ca t $LCFI0
500792f4 t $LCFI2
50079314 t $LCFI4
5007932c t $LCFI6
50079342 t $LCFI8
50079382 t $LCFI5
500793a2 t $LCFI7
500793be t $LCFI10
5007942e t $LCFI0
5007947a t $LCFI3
5007949a t $LCFI9
500794ae t $LCFI25
500794e4 t hal_AudGetSampleRateIndex
500794e6 t $LCFI28
5007963a t $LCFI40
500796da t $LCFI47
500797ba t $LCFI57
500797fe t $LCFI0
500798aa t $LCFI2
500798ea t $LCFI4
50079954 t $LCFI6
500799da t $LCFI8
50079ace t $LCFI12
50079b22 t $LCFI14
50079b3c t $LCFI6
50079bb6 t $LCFI0
50079cfe t $LCFI5
50079d46 t $LCFI13
50079d9a t $LCFI17
50079e06 t $LCFI21
50079e6a t $LCFI25
50079ece t $LCFI29
50079f32 t $LCFI37
5007a0b2 t $LCFI16
5007a0ea t $LCFI19
5007a0fa t $LCFI23
5007a10a t $LCFI27
5007a142 t $LCFI36
5007a1f6 t $LCFI0
5007a272 t $LCFI2
5007a302 t $LCFI0
5007a33e t $LCFI3
5007a356 t $LCFI7
5007a3aa t $LCFI10
5007a42e t $LCFI18
5007a51e t $LCFI5
5007a550 t hal_AudMuteAllChannels
5007a552 t $LCFI17
5007a576 t $LCFI19
5007a5ac t hal_SysCallFreqChangeHandlers
5007a5ae t $LCFI0
5007a5ec t hal_SysGetFrequencyConfiguration
5007a74e t $LCFI11
5007a842 t $LCFI15
5007a8b2 t $LCFI18
5007a966 t $LCFI21
5007a98a t $LCFI28
5007aa22 t $LCFI30
5007aa3c t $LCFI32
5007aae2 t $LCFI36
5007ac00 t $LCFI40
5007ac16 t $LCFI46
5007ad76 t $LCFI50
5007ada2 t $LCFI52
5007ae12 t $LCFI68
5007ae4a t $LCFI71
5007af00 t $LCFI0
5007af32 t $LCFI6
5007af5e t $LCFI9
5007b07c t $LCFI2
5007b0cc t $LCFI4
5007b0f2 t $LCFI9
5007b122 t $LCFI13
5007b178 t hal_TickIrqHandler
5007b17a t $LCFI16
5007b1b2 t $LCFI23
5007b222 t $LCFI0
5007b27c t musb_host_packet_tx
5007b282 t $LCFI22
5007b2e2 t $LCFI27
5007b3e2 t $LCFI34
5007b5c0 t $LCFI42
5007b786 t $LCFI0
5007b7a0 t hal_GdbIsAddressStepForbidden
5007b7fe t $LCFI0
5007ba52 t $LCFI4
5007bc50 t $LCFI8
5007bcae t $LCFI12
5007bd0a t $LCFI15
5007c050 t $LCFI19
5007c0c6 t $LCFI23
5007c166 t $LCFI27
5007c1d4 t $LCFI31
5007c228 t $LCFI35
5007c266 t $LCFI39
5007c308 t $LCFI0
5007c32e t $LCFI4
5007c392 t $LCFI0
5007c3f6 t $LCFI6
5007c466 t $LCFI0
5007c482 t $LCFI30
5007c664 t $LCFI34
5007c67a t $LCFI54
5007c6c2 t $LCFI57
5007c71e t $LCFI8
5007c7c6 t $LCFI11
5007c846 t $LCFI27
5007c8de t $LCFI31
5007c922 t $LCFI0
5007c93a t $LCFI2
5007c992 t $LCFI6
5007ca3e t $LCFI13
5007cac6 t $LCFI17
5007cb42 t $LCFI21
5007cbba t $LCFI25
5007cbfe t $LCFI29
5007cdea t $LCFI9
5007ce0a t $LCFI20
5007ce9a t $LCFI24
5007cede t $LCFI34
5007cfb6 t $LCFI8
5007d0c2 t $LCFI4
5007d1ba t $LCFI3
5007d21a t $LCFI13
5007d28e t $LCFI20
5007d2b6 t $LCFI23
5007d306 t $LCFI4
5007d33a t $LCFI6
5007d366 t $LCFI0
5007d426 t $LCFI4
5007d4a2 t $LCFI8
5007d4b2 t $LCFI17
5007d4ee t $LCFI20
5007d51a t $LCFI22
5007d5e4 t $LCFI0
5007d60a t $LCFI2
5007d652 t $LCFI4
5007d6c6 t $LCFI0
5007d6fe t $LCFI7
5007d7b2 t $LCFI13
5007d8f6 t $LCFI0
5007d95e t $LCFI4
5007d9be t $LCFI22
5007d9f4 t $LCFI32
5007da56 t $LCFI44
5007da96 t $LCFI47
5007daaa t $LCFI49
5007dafa t $LCFI57
5007db66 t $LCFI61
5007db76 t $LCFI63
5007dba6 t $LCFI66
5007dbf6 t $LCFI70
5007dc3a t $LCFI78
5007dc96 t $LCFI91
5007dd24 t $LCFI106
5007de9e t $LCFI112
5007e1be t $LCFI120
5007e1fa t $LCFI126
5007e242 t $LCFI134
5007e296 t $LCFI137
5007e2ee t $LCFI144
5007e556 t $LCFI148
5007e5b6 t $LCFI151
5007e5fe t $LCFI155
5007e676 t $LCFI162
5007e762 t $LCFI166
5007e7aa t $LCFI170
5007e7fe t $LCFI182
5007e862 t $LCFI185
5007e932 t $LCFI189
5007ebf2 t $LCFI0
5007ec4e t $LCFI4
5007ec86 t $LCFI24
5007ecce t $LCFI28
5007ed60 t uctls_GetDescriptor
5007ed62 t $LCFI7
5007eda2 t $LCFI9
5007ee36 t $LCFI13
5007eef0 t $LCFI0
5007ef08 t $LCFI2
5007ef20 t $LCFI4
5007ef38 t $LCFI6
5007f00a t $LCFI6
5007f056 t $LCFI9
5007f0c6 t $LCFI12
5007f1bc t $LCFI16
5007f202 t $LCFI19
5007f26a t $LCFI23
5007f30e t $LCFI27
5007f3b6 t $LCFI31
5007f432 t $LCFI43
5007f4c6 t $LCFI49
5007f4f6 t $LCFI16
5007f50a t $LCFI18
5007f524 t $LCFI24
5007f572 t $LCFI30
5007f5e6 t $LCFI47
5007f672 t $LCFI0
5007f6c2 t $LCFI0
5007f6e0 t $LCFI2
5007f708 t $LCFI19
5007f786 t $LCFI23
5007f7e8 t $LCFI27
5007f8ce t $LCFI31
5007f8fe t $LCFI33
5007f916 t $LCFI26
5007f930 t $LCFI28
5007f9e2 t $LCFI4
5007fa0a t $LCFI6
5007fa62 t $LCFI8
5007fa7a t $LCFI10
5007fb16 t $LCFI13
5007fc4c t $L75
5007fc8a t $LCFI17
5007fcba t $LCFI20
5007fd1e t $L100
5007fd6a t $LCFI24
5007fefe t $L122
5007ff70 t $LCFI30
5007ff88 t $LCFI40
5007ffa0 t $LCFI50
500801bc t $L174
50080242 t $LCFI81
500803d6 t $LCFI0
500803f0 t hal_PwmUpdateDivider
5008041e t $LCFI6
5008048a t $LCFI9
50080558 t _ZL17initcall_init_cmd
500d81ac r _ZL15reg_power_reset
500d81c0 r _ZL13reg_power_off
500d81d4 r _ZL18reg_reg_value_save
500d81e8 r _ZL23reg_reg_restore_default
500d81fc r _ZL8reg_beep
500d8210 r _ZL12reg_LANGUAGE
500d8224 r _ZL19reg_OEM_MANUFACTURE
500d8238 r _ZL17reg_OEM_MODELNAME
500d824c r _ZL11reg_VERSION
500d8260 r _ZL12reg_CPU_ID32
500d836c r _ZL12icon_battery
500d83b4 r _ZL13icon_ac_power
500d83c0 r _ZL11icon_charge
500d8408 r _ZL15icon_chg_no_bat
500d843c r _ZZN7Battery6updateEvE5C.179
500d8444 r _ZZN7Battery6updateEvE5C.177
500d845c r _ZL16reg_BATTERY_VOLT
500d8470 r _ZL15reg_BATTERY_CAP
500d8484 r _ZL17reg_BATTERY_LEVEL
500d84f0 r _ZL17reg_FIFO_TX_DEBUG
500d853c r _ZL16reg_FIFO_TX_COMM
500d8550 r _ZL16reg_FIFO_RX_COMM
500d8564 r _ZL16reg_OS_INFO_SEND
500d8688 r _ZL18reg_BLUETOOTH_NAME
500d869c r _ZL18reg_BLUETOOTH_ADDR
500d86b0 r _ZL22reg_BLUETOOTH_PASSWORD
500d86c4 r _ZL16reg_BT_SUB_STATE
500d8834 r _ZL15reg_FIFO_RX_PRN
500d8848 r _ZL12reg_AUTOFEED
500d885c r _ZL18reg_PRINT_DARKNESS
500d8870 r _ZL15reg_PRINT_SPEED
500d8884 r _ZL15reg_PRINT_DEBUG
500d8898 r _ZL14StepPhaseTable
500d88e8 r _ZL18reg_LABEL_FEED_LEN
500d8a88 r _ZL14irq_gpio_array
500d8ca8 r CSWTCH.77
500d8cac r CSWTCH.80
500d8d74 r hids_battery
500d8dd8 r uuid
500d8de8 r _ZL10Crc32Table
500d92c0 r gc_halAudSdm2FreqRegs
500d953c r gc_errWrongGpioType
500d9638 r g_halSysFreqSteps
500d9650 r CSWTCH.56
500d9688 r CSWTCH.59
500d9764 r CSWTCH.97
500d97a8 r g_halIrqPriorityMask
500d9828 r g_halHwModuleIrqHandler
a1980000 A _bcpu_ram_heap_start
a1980000 A _bcpu_sys_sram_bss_end
a1980000 A _bcpu_sys_sram_bss_start
a1b00000 b .dualport_sram_ubss
a1b00000 A _bt_dualport_bss_start
a1b00000 A _dualport_bss_start
a1b00000 A _rom_dualport_bss_end
a1b00208 B g_flash_write_req
a1b00209 B g_btcpu_wake_ind
a1b00210 A _bt_dualport_bss_end
a1b00210 A _bt_dualport_heap_start
a1b00210 A _dualport_bss_end
a1b00210 A _dualport_heap_start
a1c00000 b .hal_boot_sector_struct
a1c000a0 b .rom_entries_uncached
a1c000a0 B _hstMonitorXCtx_start
a1c000a0 B boot_HstMonitorXCtx
a1c000b4 B boot_HstMonitorExtendedHandler
a1c000b8 b .rom_entries_cached
a1c000b8 B xcpu_error_code
a1c000bc B xcpu_error_status
a1c000c0 B xcpu_sp_context
a1c000c4 B sxr_IrqStack_pointer
a1c000c8 B g_bootResetCause
a1c000cc B g_bootBootMode
a1c000d0 B g_bootUartMonitorBrDetected
a1c000d4 B g_bootUartMonitorBaudRate
a1c00100 b .rom_inter_ram
a1c00100 B _sys_rom_bss_start
a1c00100 B sxr_SemaInfo
a1c00104 B sxr_Sbx
a1c0011c B sxr_Task
a1c00128 B sxr_TEnv
a1c00130 B sxr_TCtx
a1c00134 B SXR_Nb_Max_Timer_Enveloppe
a1c00138 B sxs_FileCtx
a1c0013a B sxs_StdErr
a1c0013c B g_memdFlashBaseAddress
a1c00140 B RUN_Status
a1c00154 B NOT_SUSPEND
a1c00158 B g_memdFlashLayout
a1c00174 B g_halCfg
a1c00178 B g_pPrintf_ROM
a1c0017c B g_BootUsbVar
a1c00230 B g_pTgtSxCfg
a1c00240 d .rom_inter_data
a1c00240 A _sys_rom_bss_end
a1c00240 A _sys_rom_data_start
a1c00240 D g_halSysTcuRunningAt26M
a1c00244 D g_halSysCsAddress
a1c00248 D g_spiflash_pagesize
a1c0024c D g_dif_opcode_high_p_mode
a1c0024d D g_dif_opcode_write
a1c00250 A __int_rom_reserved_end
a1c00250 A _sys_rom_data_ram_end
a1c00270 b .boot_tflash_upgrade_struct_ptr
a1c00270 B g_tflashUpgradeStructPtr
a1c00274 b .boot_sector_reload_struct_ptr
a1c00274 B g_bootSectorReloadStructPtr
a1c00278 b .boot_sector_struct_ptr
a1c0027c b .fixptr
a1c0027c B g_halFixedPointer
a1c00280 t .irqsram
a1c00280 A _irq_sys_sram_start
a1c00280 T _sxr_Irq_handler
a1c00660 t .bootsramtext
a1c00660 A _boot_sys_sram_start
a1c00660 A _boot_sys_sram_txt_start
a1c00660 A _irq_sys_sram_end
a1c00660 T memd_FlashRst
a1c00664 T memd_FlashWakeup
a1c006b4 T memd_FlashSleep
a1c006f0 T get_flash_ID
a1c00730 T write_flash_status
a1c007b4 T spi_flash_quard_ctrl
a1c00848 T memd_FlashOpen
a1c009a4 T hal_EbcFlashWriteEnable
a1c009b8 T hal_EbcFlashWriteEnabled
a1c009cc T hal_FlashCacheDebugOn
a1c009d8 T hal_SpiFlashInit
a1c00a5c T hal_FlashCacheIrqHandler
a1c00ab0 d .bootsramdata
a1c00ab0 A _boot_sys_sram_data_start
a1c00ab0 D g_dif_opcode_suspend
a1c00ab1 D g_dif_opcode_resume
a1c00ab2 D g_dif_opcode_enable_QPI
a1c00ab3 D g_dif_opcode_disable_QPI
a1c00ab4 D g_dif_opcode_enable_RST
a1c00ab5 D g_dif_opcode_execute_RST
a1c00ab8 D g_memdFlashBankLayout
a1c00ae0 b .bootbss
a1c00ae0 B FLASH_IN_DP
a1c00ae0 A _boot_ram_bss_start
a1c00ae0 A _boot_sys_sram_end
a1c00ae0 A _boot_sys_sram_txt_end
a1c00af4 B g_spiflash_ID
a1c00b00 B g_halCs0WriteSetting
a1c00b10 t .sramtext
a1c00b10 A _boot_ram_bss_end
a1c00b10 A _sys_sram_cached_start
a1c00b10 A _sys_sram_start
a1c00b10 T _sys_sram_txt_start
a1c00b10 T hal_IrqDispatch
a1c00bc4 T _sxr_HMalloc
a1c00c10 d .sramdata
a1c00c10 A _sys_sram_txt_end
a1c00da0 D XCV
a1c00da4 D g_xcvChipId
a1c00da8 D g_AfcOffset
a1c00dac D g_afcDacVal
a1c00dae D g_CdacDelta
a1c00db0 D g_lastSleepMode
a1c00db4 D g_RxPllFreqReg_05h
a1c00db8 D g_xcvCmdCtx
a1c00dc4 D g_xcvCalibSetPaRamp
a1c00dc8 D g_CDAC
a1c00dcc D g_xcvCalibPaRampValue
a1c00dd4 D hal_GdbGBreak
a1c00e14 D LANGUAGE
a1c00e18 D Manufacture
a1c00e28 D ModelName
a1c00e38 D Version
a1c00e48 D pLcdFontHzk16
a1c00e6c V link_role_main
a1c00e70 D BluetoothName
a1c00e90 D BluetoothAddr
a1c00e98 D BluetoothPassword
a1c00eb8 D bt_sub_exist
a1c00ebc D PRINT_DARKNESS
a1c00ec8 D LABEL_FEED_LEN
a1c00ed0 D spi2_dma_rx_ch
a1c00ed1 D spi2_dma_tx_ch
a1c00fa8 D g_pmdChargerState
a1c00fe8 V p_wait_ms
a1c00fec D gUsbRegs
a1c00ff0 D g_halSysSystemFreq
a1c00ff4 D g_sxMapVersion
a1c01004 D g_sxMapAccess
a1c01010 D trace_pos
a1c01014 D rdabt_p
a1c01018 D g_pmdChargerInIrqEnabled
a1c0103c D g_halMapVersion
a1c0104c D g_halMapAccess
a1c010a0 d .sramucdata
a1c010a0 A _sys_sram_cached_end
a1c010a0 A _sys_sram_data_end
a1c010a0 D _sys_sram_uncached_start
a1c010a0 D g_halGdbEnabled
a1c010b0 b .sramucbss
a1c010b0 A _sys_sram_bss_start
a1c010b0 A _sys_sram_uncached_end
a1c010b0 B g_halLpsForceNoSleep
a1c011f4 B g_halEventMask
a1c011f8 B g_halIspiDebug
a1c01200 B g_halGdbSwitchCtx
a1c01204 B g_sxsDebugIdleHookEnable
a1c01208 B g_sxExternalTraceEnable
a1c0120c B g_sxTraceLelvel
a1c0124c B sxs_trace_buf
a1c012d0 b .srambss
a1c012d0 B isPllOn
a1c012d1 B isBTWakeup
a1c012d4 B g_uRxPacketSize
a1c012d8 B g_sys_timer_id_usb_detect
a1c012d9 B g_usb_active_after_bt
a1c012da B g_tflash_detect_flag
a1c012db B g_linein_detect_flag
a1c012dc B g_umssBoInEp
a1c012e0 B bt_state
a1c012e4 B g_comval
a1c012e8 B gSpiIrqHandler
a1c012ec B sxr_Mutex
a1c012f4 B sxs_PrcsRmtDataArray
a1c012f8 B sxs_Spy
a1c01300 B sxr_Job
a1c01304 B ear_time_handle
a1c01305 B linein_time_handle
a1c01308 B g_gpio_config
a1c0130c B key_status
a1c01314 B error
a1c01318 B g_pmdConfig
a1c0131c B pUart2IrqHandler
a1c01320 B pUart1IrqHandler
a1c01324 B pDebugUartIrqHandler
a1c01328 B pSdmmcIrqHandler
a1c0132c B g_pHeapTop
a1c01330 B g_pDevDescrip
a1c01334 B p_Data_Header
a1c01338 B g_spk_gain
a1c0133c B extIo
a1c01340 B extIo_update_disable
a1c01344 B board
a1c01348 V _ZGVZN11UiLcdConfig14status_refreshEbE13display_timer
a1c01350 B uiLcd
a1c01354 V _ZZN11UiLcdConfig14status_refreshEbE10need_clear
a1c01358 V _ZZN11UiLcdConfig14status_refreshEbE18allow_enter_config
a1c0135c V _ZZN11UiLcdConfig14status_refreshEbE13display_timer
a1c01368 V _ZZN11UiLcdConfig14status_refreshEbE16last_config_mode
a1c0136c V _ZZN11UiLcdConfig25string_enum_get_item_nameEiPKciE9ValueName
a1c01394 B battery
a1c01398 B BATTERY_VOLT
a1c0139c B BATTERY_CAP
a1c013a0 B BATTERY_LEVEL
a1c013dc B linkRegLocal
a1c013e0 B regRemoteCount
a1c013e4 B linkRegRemote
a1c01414 B link_before_tx
a1c01418 B link_after_tx
a1c0141c B link_rx_cmd
a1c01420 B link_after_rx
a1c01424 B linkFrame
a1c01428 B linkFrameHead
a1c0142c B link_fail
a1c01438 B comm
a1c0143c B fifo_tx_comm
a1c01440 B fifo_rx_comm
a1c01444 B OS_INFO_SEND
a1c01448 B commUsb
a1c0144c B BT_SUB_STATE
a1c01450 B comm_bt
a1c01454 V _ZZN12UI_Bluetooth24bluetooth_status_handlerEiE5flash
a1c01460 V _ZZN8UiEngine22printer_status_handlerEiE12LastPrinting
a1c01464 V _ZZN8UiEngine22printer_status_handlerEiE11LastNoPaper
a1c01468 V _ZZN8UiEngine22printer_status_handlerEiE15LastCoverOpened
a1c0146c B prnEngine
a1c01470 B fifo_rx_prn
a1c01474 B AUTOFEED
a1c01478 B PRINT_SPEED
a1c0147c B PRINT_DEBUG
a1c01480 B PrnState
a1c015b4 B spi_dma_ch
a1c015c4 B prnCmd
a1c015cc B sys_ifc_channel
a1c015d0 B reset_direct_start
a1c015d4 B _Unwind_Resume
a1c015e0 B os_info_thread
a1c015e4 B os_info_task_write
a1c015e8 B os_info_send_info
a1c016b0 B uart_dma
a1c016c8 B usb_started
a1c016cc B gUsbConnected
a1c016d8 B g_halLpsSleptBefore
a1c016d9 B g_halSysLpsLock
a1c016dc B g_USB_DEVICE
a1c016e0 B usb_poweron_det
a1c016e4 B g_pfDisconnCb
a1c01704 B g_test_mode
a1c01705 B g_sys_sleep_flag
a1c01706 B g_usb_connected
a1c0171c B onUsbRx
a1c0172c B g_sxsFsIdleHookFuncPtr
a1c01730 B g_sxsDebugIdleHookFuncPtr
a1c01740 B TEST_M
a1c01744 B _raw_bluetooth
a1c01748 B app_bt_vars
a1c01784 B bt_mode
a1c017ac B usb_music_udiskready
a1c018b0 B spp_sd
a1c018b8 B FLASH_BASE_ADDR
a1c018bc B FLASH_TOTAL_SIZE
a1c018c0 B FLASH_PAGE_SIZE
a1c018c4 B RAM_BASE_ADDR
a1c018c8 B RAM_TOTAL_SIZE
a1c018cc B CPU_NAME
a1c018d0 B CPU_CLOCK
a1c018d4 B CPU_CRYSTAL
a1c018d8 B CPU_ID32
a1c018dc B RegionArray
a1c01aa8 B usb_os_info_task
a1c01aac B _ZN8FileBase5_headE
a1c01ab0 B g_halBtHostIrqHandler
a1c01ab4 B g_halBtStarted
a1c01ab5 B g_halBTSleep
a1c01ab8 B g_halDmaRegistry
a1c01abc B g_halGpioRegistry
a1c01afc B g_halMapTable
a1c01c84 B irqTimTimersIrqHandler
a1c01c94 B count_MUSB_RXCOUNT
a1c01dac B g_btdConfig
a1c01db0 B rdabt_cntx
a1c01dbc B rdabt_send_notify_pending
a1c01dc0 B g_pmdIrqSettingLatest
a1c01e24 B g_UctlsStatus
a1c01e2c B gpResourceBase
a1c02014 B g_iDevDescripCount
a1c02018 B g_pDsmDevInfo
a1c0201c B g_iDsmDevCount
a1c02020 B g_hDevSem
a1c02024 B g_curModifyPos
a1c02038 B key_enterInterrupt
a1c0203c B g_halLpsCtx
a1c0206c B gUsbSN
a1c0207c B gUsbProductName
a1c0209c B gUsbManufacture
a1c020bc B gString1284ID
a1c0213c B gBleName
a1c02160 B g_halSysFreqScalRegistry
a1c02188 B g_halNumberOfUserPerFreq
a1c02194 B cos_mem_info
a1c021e0 b .backup
a1c021e0 A _sys_sram_bss_end
a1c021f0 A _sys_sram_data_start
a1c021f0 A _sys_sram_end
a1c021f0 A _sys_sram_heap_start
a1c021f0 A _tflash_sram_bss_end
a1c021f0 A _tflash_sram_bss_start
a1c021f0 A _tflash_sys_sram_end
a1c09090 D _gp
a1c0f17c A _sys_sram_available_end
a1c0f17c A _sys_sram_irq_stackwatch_start
a1c0f1fc A _sys_sram_irq_stackwatch_end
a1c0fffc D _sys_sram_non_romed_top
a1c0fffc A _sys_sram_top
a1c80000 t .btirq_text
a1c80000 T _bt_Irq_handler
a1c80000 A _btrom_irq_start
a1c80140 T bt_IrqInit
a1c80170 A _bt_irq_sram_txt_end
a1c80180 d .bt_introm_data
a1c80180 A _btrom_data_start
a1c80180 D btcpu_error_code
a1c80184 D btcpu_error_status
a1c80188 D btcpu_sp_context
a1c8018c D calibration_counter_1us
a1c80190 D lelcacc_max_payload_length
a1c80194 D rx_patten_data
a1c80198 D rx_result_buff
a1c801b0 D RDA_TEST_MODE_AM_ADDR
a1c801b1 D _r2p_min_search_window
a1c801b4 D lelc_test_accessword
a1c801b8 D lelc_sca_table
a1c801c8 D g_le_mini_sleep_slot
a1c801c9 D rssi_avager_low_th
a1c801ca D rssi_avager_high_th
a1c801cc D LL_CONTROL_INFO_TIMER_FLAG
a1c801d0 D lelc_conn_update_gap
a1c801d4 D _driver_status
a1c801d8 D rda5856_trap_table
a1c80220 b .bt_rom_uncached
a1c80220 A _btrom_bss_start
a1c80220 A _btrom_data_ram_end
a1c80220 B g_sys_config
a1c80324 b .bt_rom_inter_ram
a1c80324 B SHA_256_H
a1c80344 B SHA_256_W
a1c80384 B g_sec_link
a1c80388 B SHA_256_add_one
a1c80389 B SHA_256_total_len
a1c8038a B SHA_256_buff_len
a1c8038c B Cache_JAL_NATIVE_CLK
a1c80390 B Cache_JAL_BT_CLK_OFFSET
a1c80394 B count_repeat
a1c80398 B calib_count
a1c8039c B Cache_JAL_COM_CTRL_IRQ_REG
a1c803a0 B hw_delay_counter
a1c803a4 B BTq_sco_out
a1c803b8 B BTq_data_memory
a1c80a78 B BTQueues
a1c80f1c B BTq_l2cap_out
a1c80f30 B lmp_in_heap
a1c80f80 B BTq_l2cap_in
a1c80f94 B ll_in_headers
a1c81024 B hci_event_headers
a1c810e4 B BTq_sco_in
a1c810f8 B BTq_ll_out
a1c8110c B hci_event_heap
a1c8140c B BTq_lmp_out
a1c81420 B lmp_in_headers
a1c814e0 B ll_in_heap
a1c81530 B _queue_filter
a1c81534 B eSCO_Tx_Buffers
a1c81538 B sco_out_heaps
a1c8153c B sco_in_heaps
a1c81540 B eSCO_Tx_Descriptor
a1c81544 B acl_container_buff
a1c81548 B hci_event_mask
a1c8154c B hci_le_event_mask
a1c81550 B hci_event_mask_extended
a1c81554 B page_complete_status
a1c81558 B name_timer
a1c8155c B _LMch_p_pending_link
a1c81560 B link_container
a1c81564 B lmp_link_pool
a1c81568 B dev_index_2_p_link
a1c81578 B esco_slave_cvds_rx
a1c81579 B _LMpol_prev_slots_tx
a1c8157a B _LMpol_last_active_sco_index
a1c8157b B _LMpol_last_active_device_index
a1c8157c B _LMpol_call_lc_wakeup
a1c8157d B num_link_keys
a1c81580 B _LMscoctr_lm_sco_handle_for_last_slave_LMP_sco_link_req
a1c81584 B _LMscoctr_Topical_eSco_Link_Transaction_Type
a1c81588 B _LMscoctr_number_scos_used
a1c8158c B _p_LMscoctr_Topical_eSco_Link
a1c81590 B LMscoctr_saved_state
a1c81594 B _LMeScoctr_number_escos_used
a1c81596 B _LMscoctr_Topical_Voice_Setting
a1c81598 B _LMscoctr_esco_retrans_mode
a1c8159c B _LMscoctr_Negotiate_SCO_descr
a1c815ac B _LMeScoctr_d_esco_calculator_bitmap
a1c815bc B LMscoctr_eSCO_Host_Constraints
a1c815cc B _LMscoctr_current_negotiate
a1c815d8 B LMscoctr_eSCO_Scratchpad
a1c815f0 B sco_link_container
a1c8164c B num_inquiry_filters
a1c8164d B num_connection_filters
a1c81650 B g_LM_device_state
a1c81654 B g_LM_config_info
a1c816e8 B remote_name_string
a1c817e0 B device_name_string
a1c818d8 B g_LM_test_device_role
a1c818dc B LM_Scan
a1c81904 B inq_scan_act
a1c81910 B page_scan_act
a1c8191c B inquiry_result
a1c81938 B inq_results
a1c819b0 B LM_Inq
a1c819d8 B lm_timer_head
a1c819dc B lm_timers
a1c81cd4 B _LMafh_AFH_update_timer_index
a1c81cd8 B _LMafh_AFH_request_channel_classification_on_piconets
a1c81cd9 B _LMafh_AFH_LMP_channel_classification_pending_on_piconets
a1c81cda B _LMafh_AFH_channel_assessment_mode
a1c81cdb B _LMafh_AFH_control_byte
a1c81cdc B _LMafh_AFH_LMP_set_afh_pending_on_am_addrs
a1c81ce0 B LC_local_device_fhs
a1c81cf4 B lc_call_back_list
a1c81d4c B clk_offset
a1c81d50 B LSLCass_previous_nak_channel
a1c81d51 B LSLCass_control_log
a1c81d52 B LSLCass_num_channels_unused
a1c81d54 B _assessment
a1c81d64 B LSLCass_freq_interference
a1c81db4 B _LSLCfreq_tx_lookahead_freq_start
a1c81db8 B _LSLCfreq_channel
a1c81dbc B LSLCfreq_last_freq_clk
a1c81dc0 B _LSLCfreq_tx_lookahead_clock
a1c81dc4 B _LSLCfreq_tx_lookahead_afh_mode
a1c81dc5 B _LSLCfreq_tx_lookahead_piconet_index
a1c81dc8 B _Page_Inquiry_Frequency_Table
a1c81e08 B _Page_Scan_Frequency_Table
a1c81e48 B LSLChop_hs_kernel
a1c81e58 B LSLChop_hs_engine
a1c81e78 B total_received_packet
a1c81e7c B total_test_packet
a1c81e80 B _was_previous_rx_slot_a_scan
a1c81e81 B LSLCacc_last_rx_LMP_msg
a1c81e84 B Saved_DWH2_INIT
a1c81e88 B bbtest_stop
a1c81e8c B rx_test_patten
a1c81e90 B total_error_packet
a1c81e94 B lslc_acc_shadow_sco_route_
a1c81e98 B total_error_bit
a1c81e9c B lslc_acc_recent_rssi_available_
a1c81ea0 B bt_rx_test_enable
a1c81ea4 B total_received_bits
a1c81ea8 B bbtest_tx_new_packet
a1c81eaa B lslc_acc_shadow_sco_cfg_
a1c81eac B Saved_DWH1_INIT
a1c81eb0 B LSLC_PSKEY_REG
a1c81ebc B bbtest_param
a1c81ed0 B _ctrl_reg_shadow
a1c81ef4 B set_rx_on
a1c81ef5 B le_mode_running
a1c81ef8 B stored_p_clk
a1c81efc B _LSLCslot_state
a1c81f00 B _LSLCslot_eSCO_tx_3slot_packet_expected
a1c81f01 B _LSLCslot_eSCO_rx_3slot_packet_expected
a1c81f04 B registered_clk_workaround
a1c81f08 B registered_callback_function
a1c81f0c B monitors
a1c81fb0 B _LSLCafh_AFH_hse_kernel
a1c82340 B _LSLCafh_AFH_link
a1c82360 B LSLCcls_device_channel_map
a1c8236c B LSLCcls_AFH_channel_classification
a1c823bc B _chan_ctrl
a1c823e4 B _activity
a1c8240c B testmode_ctrl
a1c82438 B _inquiry_info
a1c8255c B _inquiryScan_info
a1c82680 B _page_info
a1c826b0 B _pageScan_info
a1c826ec B switch_flag
a1c826f0 B _mss_info
a1c828a0 B g_phy_cfg
a1c828a4 B _sleep_info
a1c828bc B unsniff_rxon_pretime
a1c828c0 B _r2p_info
a1c828e4 B g_min_wakeup_interval
a1c828e8 B _sp_info
a1c828ec B DL_amaddr_pool
a1c828f0 B DL_LC_link_pool
a1c828f4 B DL_piconet_index_pool
a1c828f8 B DL_transmit_descr
a1c82910 B ss_output
a1c82934 B lelc_adv_packet
a1c82960 B lelcacc_radio_timing
a1c82978 B lelc_rxtest_freq
a1c8297c B lelcpkt_active_device_link_ref
a1c82980 B lelc_txtest
a1c82982 B lelc_rxtest_packetcount
a1c82984 B lelc_rxtest
a1c82985 B lelc_local_sca
a1c82988 B lelc_chan_info
a1c82990 B le_init_info
a1c829c8 B current_active_device_link
a1c829cc B rssi_average_closed
a1c829d0 B lelc_link_num
a1c829d4 B lelc_link_pool
a1c829d8 B lelc_conf_interval
a1c82a64 B lelc_sleep_info
a1c82a78 B rssi_noise_average
a1c82a7c B rssi_counter
a1c82a80 B rx_no_pkd
a1c82acc B rx_crc_error_channel_table
a1c82b18 B rx_crc_correct_channel_table
a1c82b64 B crc_rate_table
a1c82b8c B rssi_rate_table
a1c82bb4 B Lelcacc_num_channels_unused
a1c82bb6 B LeLcacc_num_received_for_rssi
a1c82bb8 B rssi_currect_value
a1c82bbc B rssi_currect_noise_value
a1c82bc0 B LeLcacc_num_received_pkd_start
a1c82bc2 B LeLcacc_num_received_for_calu
a1c82bc4 B BTtst_dut_mode
a1c82bc8 B BTtst_loopback_info
a1c82bd0 B BTms_data_flag
a1c82bd1 B _BTms_pending_hc_reset
a1c82bd4 B init_filter
a1c82bd8 B g_deviceLinkSet
a1c83a0c B srand_seed
a1c83a10 B _tra_hcit_active
a1c83a14 B sys_hcit_info
a1c83a18 B hci_generic_event_callback
a1c83a1c B TRAhcit_Register
a1c83a20 B sys_hcit_uart_info
a1c83a64 B tra_hcit_uart_rx_buf
a1c83a68 B tra_hcit_uart_rx_state
a1c83a6c B tra_hcit_uart_cur_tx_pointer
a1c83a70 B tra_hcit_uart_rx_length
a1c83a74 B tra_hcit_uart_tx_pdu_length
a1c83a78 B tra_hcit_uart_tx_original_length
a1c83a7c B tra_hcit_uart_tx_pdu_buf
a1c83a80 B tra_hcit_uart_tx_state
a1c83a84 B tra_hcit_uart_rx_head_buf
a1c83a88 B tra_hcit_uart_pend_length
a1c83a8a B tra_hcit_uart_rx_type
a1c83a8c B tra_hcit_uart_cur_tx_length
a1c83a90 B tra_hcit_uart_hardware_error_event_flag
a1c83a94 B g_pending_sco_packet
a1c83a98 B cmd_buf_index
a1c83a9a B orign_opcode
a1c83a9c B opcode_force
a1c83a9d B _LMPdisp_dispatched_pdu_length
a1c83aa0 B ll_whitelist
a1c83ab0 B ll_whitelist_item
a1c83b00 B LSLCpkt_Active_Tx_Device_Link_Ref
a1c83b04 B LSLCpkt_Active_Rx_Device_Link_Ref
a1c83b08 B stAdv_Ind
a1c83b34 B stScan_Resp
a1c83b60 B le_scan_info
a1c83be8 B le_advert_info
a1c83c84 B fc56_response
a1c83c8c B param_fortest
a1c83c94 B LowFrequencyOscillatorAvailable
a1c83c98 B g_rda_mode_config
a1c83c9c B syspwr_low_power_mode_active_
a1c83c9e B g_host_wake_event1
a1c83ca0 B fun_in_ram
a1c83ca4 B syspwr_num_frames_to_sleep_
a1c83ca8 B g_host_wake_pause_length
a1c83cac B p_Wake_Host_Fun
a1c83cb0 B host_wake_value
a1c83cb2 B g_host_wake_event2
a1c83cb4 B g_host_wake_length
a1c83cb6 B g_host_wake_flag
a1c83cb8 B trap_fun16
a1c83cbc B trap_fun1
a1c83cc0 B trap_fun6
a1c83cc4 B trap_fun8
a1c83cc8 B trap_fun13
a1c83ccc B trap_fun7
a1c83cd0 B trap_fun2
a1c83cd4 B trap_fun12
a1c83cd8 B trap_fun10
a1c83cdc B trap_fun5
a1c83ce0 B trap_fun15
a1c83ce4 B trap_fun4
a1c83ce8 B trap_fun3
a1c83cec B trap_fun14
a1c83cf0 B trap_fun11
a1c83cf4 B trap_fun9
a1c83cf8 B _i2c_seq_read_soft
a1c83cfc B _i2c_seq_write_soft
a1c83d00 B CurrentRadioMode
a1c83d04 B PacketExtensionActive
a1c83d05 B TxPacketExtensionActive
a1c83d06 B RxPacketExtensionActive
a1c83d07 B Tim_bit_count_synch
a1c83d08 B radio_set_to_tx
a1c83d09 B radio_set_to_rx
a1c83d0c B Gio_tim3_change
a1c83d10 B raw_rssi
a1c83d14 B Driver_Data
a1c83d20 B tx_pwr_level_
a1c83d24 B Channels_Table
a1c83d28 B ser_config_word_cache
a1c83d2c B SerialData0Frequency
a1c83d30 B Requested_RadioMode
a1c83d34 B g_pBT_Host_Config
a1c83d38 B max_data
a1c83d3c B max_msg
a1c83d40 B host_timers
a1c83d44 B security_want_keytype
a1c83d46 B pendingSecHandle
a1c83d50 t .bt_sramtext
a1c83d50 T LSLCacc_Extract_Packet_Z
a1c83d50 A _bt_sram_cached_start
a1c83d50 T _bt_sram_text_start
a1c83d50 A _btrom_bss_end
a1c83d50 A _btrom_sram_end
a1c84044 T LSLCpkt_Process_Rx_Packet_Z
a1c842e0 T HW_Wait_Flash_Write
a1c84310 T SYSirq_IRQ_Handler5855
a1c84458 T SYSirq_Handle
a1c84490 T patch_BTq_LELC_BB_Dequeue_Next
a1c844c4 T BTq_BB_Dequeue_Next_Synchronous2
a1c84560 d .bt_sramdata
a1c84560 D _bt_sram_data_start
a1c84560 A _bt_sram_text_end
a1c84560 D btcpu_GdbGBreak
a1c845a0 D gap_dn_char
a1c845a8 D gap_dn
a1c845d0 D gap_appear_char
a1c845d8 D gap_appearance
a1c845dc D gap_privacy_char
a1c845e4 D gap_reconn_addr_char
a1c845ec D gap_conn_parameters_char
a1c845f4 D gap_service
a1c846d0 D gatt_char
a1c846d8 D calibration_counter_1ms
a1c846dc D calibration_counter_10us
a1c846e0 D l2_cur_ident
a1c846e4 D test_case_filter
a1c846e8 D device_channel_map
a1c846f0 D rssi_device_channel_map
a1c846f8 D crc_device_channel_map
a1c84700 D rssi_reopen_num
a1c84701 D rssi_reopen_th
a1c84702 D crc_reopen_num
a1c84703 D crc_reopen_th
a1c84704 D crc_reopen_det
a1c84708 D lelc_init_channel_map
a1c84710 D lelc_init_hop_increment
a1c84711 D lelc_conn_channel_map_gap
a1c84714 D ll_opcode_pending
a1c8472c D tx_quality_dm_threshold
a1c8472d D tx_quality_dh_threshold
a1c8472e D rx_quality_dm_threshold
a1c8472f D rx_quality_dh_threshold
a1c84730 D tx_quality_2m_threshold
a1c84731 D tx_quality_3m_threshold
a1c84732 D rx_quality_2m_threshold
a1c84733 D rx_quality_3m_threshold
a1c84734 D quality_min_num_packets
a1c84738 D lm_default_pub_key_192
a1c847f8 D LMsec_link_key_request_timeout
a1c847fc D LMsec_pin_code_request_timeout
a1c84800 D k32_clock_offest
a1c84803 D rdabt_security_mode
a1c84804 D rdabt_security_level
a1c84810 D rdabt_rfcomm_core
a1c84818 D g_MTK_EVENT_C1FC_ARRAY
a1c84820 D soundbar_master
a1c84821 D soundbar_in_unsniff_mode
a1c84822 D ADVERT_IND_INTERVAL
a1c84824 D ADVERT_IND_EVENT_INTERVAL
a1c84826 D ADVERT_TX_POWER_LEVEL
a1c84828 D ADVERT_DIRECT_IND_INTERVAL
a1c8482a D ADVERT_DIRECT_IND_TIMEOUT
a1c8482c D lelc_conn_default_win_size
a1c84830 D MIX_MATRIX
a1c84840 D browsegroup_service
a1c84850 D service_records
a1c84860 D rdabt_sdp_database
a1c84870 d .bt_sramucdata
a1c84870 A _bt_sram_cached_end
a1c84870 A _bt_sram_data_end
a1c84870 D _bt_sram_uncached_start
a1c84870 D test_pka
a1c84874 D baseband_test
a1c84878 D baseband_test1
a1c8487c D baseband_test2
a1c84880 D inquiry_test
a1c84884 D inquiry_test_scan
a1c84888 D connect_Test
a1c8488c D le_advert_Test
a1c84890 D pagescan_Test
a1c84894 D br_dut_mode_test
a1c84898 D tab_read
a1c8489c D tab_value
a1c848a0 D tab_write
a1c848a4 D tab_value1
a1c848a8 D test_tim2
a1c848b0 b .bt_sramucbss
a1c848b0 A _bt_sram_uncached_end
a1c848b0 B host_debug_buff
a1c848e0 b .bt_srambss
a1c849d0 B discard_sbc_cid
a1c849d2 B g_dataqueue_pending_counter
a1c849d3 B g_loop_redundancy_counter
a1c849d4 B BTreset_delay
a1c849d6 B gap_privacyFlag
a1c849d8 B gap_reconn_addr
a1c849e0 B gap_pcp
a1c849e8 B gatt_sc_value
a1c849ec B gatt_sc_char_configuration
a1c849fc B capture_flag
a1c84b00 B mem_addr_array
a1c85100 B rdabt_l2_channel_list
a1c85104 B l2cap_disconnect_handle
a1c85110 B rdabt_l2cap_config_helper_list
a1c85114 B rdabt_l2cap_config_helper_list_lock
a1c85118 B pending_cid
a1c8511c B l2_unknown_option
a1c85120 B l2_config_continue
a1c85124 B l2_config_part
a1c8512c B Transaction_Id_temp
a1c85130 B result_temp
a1c85132 B handle_temp
a1c85134 B lelc_rxtest_crcerr_packetcount
a1c85136 B _LMch_host_v12_functionality_confirmed
a1c85138 B disc_esco_cnt
a1c8513c B eir_for_event
a1c85140 B link_key_database
a1c85228 B _LMpol_zero_packet
a1c85258 B g_pending_on_host_state
a1c85259 B cal_dhkey_flag
a1c8525a B dhkey_init_result
a1c8525b B LMsec_pin_code_request_timeout_extend
a1c8526c B bbtest_hop_enable
a1c85270 B bttest_AFH_hse_kernel
a1c85314 B es
a1c85316 B co
a1c85340 B rdabt_a2dp_info
a1c85378 B rdabt_a2dp_msg_info
a1c85388 B rdabt_a2dp_audio_sync_data
a1c85390 B current_clk
a1c85394 B avrcp_adp_info
a1c853a0 B rdabt_test_mode_scan_cnf
a1c853a4 B mgr_adp_info
a1c853ec B mgr_adp_msg
a1c853f8 B mgr_adp_inquiry
a1c85400 B spp_adp_info
a1c85408 B spp_adp_sd_struct
a1c85410 B soundbar_control_data
a1c85428 B rdabt_support_soundbar
a1c8542c B rdabt_rfcomm_core_lock
a1c85430 B rdabt_rfcomm_pending_list
a1c85434 B rdabt_rfcomm_pending_lock
a1c85438 B rdabt_rfcomm_entity_started
a1c8543c B rdabt_rfcomm_disconnection_reason
a1c8543e B waiting_for_disconnect
a1c85440 B p_disconnect_waiting_task
a1c85444 B g_ServieSearch_cid
a1c85448 B rdabt_sdp_server_access
a1c8544c B rdabt_sdp_server_active
a1c85450 B p_SDP_Primitive_Task_List
a1c8545c B spp_peer_device
a1c85460 B g_max_spp_port
a1c85461 B g_max_spp_server
a1c85462 B g_spp_pending_uuid
a1c85464 B g_spp_pending_uuid128
a1c85468 B element_spp
a1c8546c B attribute_spp
a1c85470 B service_spp
a1c85474 B Wati_connect_serverChannel2
a1c85478 B extend_opcode_map
a1c8547c B _LSLCslot_tmp_state
a1c85480 B host_seprate
a1c85484 B rdabt_host_timer_id
a1c85488 B rdabt_host_ticks
a1c8548c B numflag
a1c85490 B cmd_buf
a1c85690 B DATA_BUFF
a1c85694 B soundbar_spp_port
a1c85698 B gAvdtp
a1c856a0 B soundbar_control_cmd
a1c856b4 B disable_command
a1c856d4 B hfp_core_msg_info
a1c856e0 B gHFP
a1c856e4 B rdabt_l2_link_full
a1c856e6 B ADVERT_DIRECT_IND_SHORT_TIME
a1c856e8 B lelc_conn_default_win_offset
a1c856ec B _LMafh_AFH_host_channel_classification
a1c856f8 B _LMafh_AFH_update_timeout
a1c85708 B SBOX
a1c85808 B RCON
a1c85814 B hfp_adp_info
a1c85824 B SDP_Service_Record_Num
a1c85828 B rdabt_rfcomm_se_head
a1c8582c B hc_flow_ctrl
a1c85848 B host_mem_info
a1c858a8 B queue_info
a1c858c0 B timer_info
a1c858cc B _LMch_LMP_features_req_ext_PDU
a1c858d8 B _LMch_LMP_features_res_ext_PDU
a1c858e4 B inquiry_filters
a1c859ac B connection_filters
a1c85a74 B count_edr_data
a1c85a80 B repeatAttemptEntries
a1c85b20 B g_LM_SSP_config_info
a1c85ba0 B p192_comp_data
a1c85e64 B g_sec_tmp_p_payload
a1c85e94 B temp_rand
a1c85ea4 B _inq_info
a1c85eb8 B _le_scan_info
a1c85ec4 B secdb
a1c85ed8 B le_msg_info
a1c85ee4 B rfcomm_core
a1c85f00 B sdp_replace_data
a1c85f20 B combined_info
a1c85f30 B rdabt_l2_acl_links
a1c85f40 B _LMafh_Master_LMP_set_AFH_PDU
a1c85f50 B _LMafh_Slave_LMP_channel_classification_PDU
a1c85f60 A _bt_sram_end
a1c87400 A _bt_sram_available_end
a1c87ff0 B _bt_sram_non_romed_top
a1c88000 A _bt_sram_top
a1e00000 t .internal_rom
a1e00000 A __int_rom_main
a1e00000 T __xcpu_start
a1e00000 A _int_rom_start
a1e00180 T _boot_IrqHandler
a1e002c0 T boot_HstMonitorX
a1e00320 T boot_DbgExlTrigFunction0
a1e004c0 T monitor_entry
a1e004c4 T initial_stack_top_var
a1e004c8 T boot_FlushCache
a1e004e8 T boot_DisableInterrupt
a1e00500 T mon_Event
a1e00538 T boot_HstCmdBasicHandler
a1e00598 T boot_HstMonitor
a1e00604 T boot_IspiOpen
a1e006e4 T boot_IspiSendData
a1e00740 T boot_IspiTxFifoAvail
a1e0075c T boot_IspiTxFinished
a1e00788 T boot_UsbIspiWrite
a1e007c4 T boot_UsbPHYEnable
a1e007ec T g_bootIspiRomedCfg
a1e00810 T boot_MonitorDoMonitoring
a1e00944 T boot_Monitor
a1e00a04 T hal_GetK1
a1e00a0c T boot_romCsString
a1e00a3c T musb_select_ep_rom
a1e00a50 T musb_write_fifo_rom
a1e00acc T musb_read_fifo_rom
a1e00b48 T boot_mgc_usb_highSpeed
a1e00bf0 T boot_UsbResetTransfert
a1e00c18 T boot_UsbCancelTransfert
a1e00f0c T boot_SetIOMux
a1e00f48 T boot_usbinitclockenable
a1e01000 T boot_UsbInitVar
a1e01028 T boot_musb_g_rx
a1e010ec T boot_musb_g_tx
a1e011a8 T boot_musb_start
a1e011ec T boot_UsbOpen
a1e01214 T boot_UsbEpStall
a1e01218 T boot_UsbRecv
a1e01260 T boot_UsbSend
a1e01310 T boot_UsbCompletedCommand
a1e01338 T boot_UsbEpEnableInterrupt
a1e01388 T boot_UsbEpRxTransferedSize
a1e0139c T boot_UsbEpTransfertDone
a1e013b8 T boot_UsbClose
a1e013ec T boot_UsbReset
a1e01414 T boot_UsbIrqHandler
a1e01c24 T boot_HostUsbDeviceCallback
a1e01c30 T boot_HostUsbClockEnable
a1e01c68 T boot_HostUsbClose
a1e01c78 T boot_HostUsbInit
a1e01cdc T boot_HostUsbOpen
a1e01d10 T boot_HostUsbSend
a1e01e6c T boot_HostUsbEvent
a1e0230c T boot_HostUsbRecv
a1e023d0 T boot_HostUsbInterface
a1e02450 T boot_IrqDispatch
a1e02480 T hal_TimDelay
a1e024a0 T sxr_TaskSwap
a1e02570 T sxr_Sleep
a1e025c4 T sxr_Wait
a1e026f0 T sxr_Send
a1e02834 T sxr_Tampax
a1e0298c T sxr_SetTimer
a1e02b74 T _sxr_StartFunctionTimer
a1e02ba4 T sxr_RmvFromSuspendedQueue
a1e02c08 T sxr_RunNextTask
a1e02cd4 T sxr_SuspendTask
a1e02d6c T sxr_WakeUpTask
a1e02ea4 T sxr_ResumeTask
a1e02ef8 T sxr_ChkSbx
a1e02f28 T sxr_CheckSbx
a1e03034 T memd_FlashWriteInProgress
a1e0307c T spi_flash_write
a1e03144 T memd_FlashWrite
a1e03278 T spi_flash_sector_erase_nosuspend
a1e032e0 T spi_flash_sector_erase
a1e032f4 T spi_flash_block_erase
a1e03370 T memd_FlashErase
a1e03440 T hal_FlashCacheOn
a1e03474 T hal_FlashCacheOff
a1e03490 T hal_SpiFlashDisableRead
a1e034b0 T hal_SpiFlashEnableRead
a1e034cc T hal_SpiFlashPushTxFifoData
a1e03514 T hal_SpiFlashGetRxData
a1e03544 T hal_SpiFlashClearFifoData
a1e0356c T hal_SpiFlashSendCmd
a1e035d8 T hal_TimGetUpTime
a1e035e4 T memcpy
a1e03764 T strlen
a1e03780 t .sys_rom
a1e03904 T vsnprintf
a1e03c9c T sprintf
a1e03cb8 T tgt_GetSxNbConfig
a1e03cc4 T memmove
a1e03dbc T __divsf3
a1e03e80 T __thenan_sf
a1e03e90 T __pack_f
a1e03f54 T __unpack_f
a1e03fd0 A _sys_rom_data_base
a1e03fe0 A _sys_rom_data_end
a1e03ff8 r .boot_rom_version_number
a1e03ff8 R _int_rom_version_number
a1e03ff8 R g_bootRomVersionNumber
a1e03ffc d .internal_rom.crc
a1e03ffc D __int_rom_crc
a1e03ffc A _int_rom_end
a1e80000 t .btcpu_rom
a1e80000 T __btcpu_start
a1e80080 T __btcpu_init
a1e80180 T __btcpu_int_handler
a1e80194 T LSLCirq_Disable_All_Intr_Except
a1e801c0 T LSLCirq_R2P_Turn_On_Intr
a1e801e4 T LSLCirq_R2P_Clear_All_Intr
a1e80200 T LSLCirq_Disable_And_Clear_Tabasco_Intr
a1e80210 T LSLCirq_Enable_Aux_Tim_Intr
a1e8022c T LSLCirq_Disable_Aux_Tim_Intr
a1e80244 T LSLCirq_ARM_COMMOM_INT_Handler
a1e80268 T LSLCirq_BT_TIM0_Handler
a1e802bc T LSLCirq_BT_TIM1_Handler
a1e80310 T LSLCirq_BT_TIM2_Handler
a1e8036c T LSLCirq_BT_TIM3_Handler
a1e803c0 T LSLCirq_BT_AUX_TIM_Handler
a1e80410 T LSLCirq_BT_PKA_Handler
a1e80464 T LSLCirq_BT_NO_PKT_RCVD_Handler
a1e804b4 T LSLCirq_BT_PKD_Handler
a1e8050c T LSLCirq_BT_PKD_RX_HDR_Handler
a1e8055c T LSLCirq_BT_SYNC_DET_Handler
a1e805ac T LSLCpkt_Get_Active_Rx_Device_Link_Ref
a1e805b8 T LSLCpkt_Get_Active_Tx_Device_Link_Ref
a1e805c4 T _LSLCpkt_Prepare_Piconet_Channel_Access
a1e806c8 T LSLCpkt_Generate_POLL
a1e806f4 T LSLCpkt_Generate_NULL
a1e80720 T LSLCpkt_Generate_DV
a1e8075c T LSLCpkt_Generate_ACL
a1e807c0 T LSLCpkt_Generate_SCO
a1e80858 T LSLCpkt_Generate_EIR
a1e808e8 T LSLCpkt_Generate_FHS_Common_
a1e80968 T LSLCpkt_Generate_FHS_Ex
a1e8099c T LSLCpkt_Generate_FHS
a1e809c8 T LSLCpkt_Generate_ID
a1e80a1c T LSLCpkt_Process_Rx_Packet
a1e80a7c T LSLCpkt_Process_No_Rx_Packet
a1e80a9c T LSLCpkt_Process_Rx_Packet_Header
a1e80ac0 T LSLCpkt_Prepare_Receiver_Return_To_Piconet
a1e80b38 T LSLCpkt_Prepare_Receiver_Master_Slave_Switch
a1e80b6c T LSLCpkt_Prepare_Receiver_Connection
a1e80ba4 T LSLCpkt_Prepare_Receiver_EIR
a1e80be0 T LSLCpkt_Prepare_Receiver_FHS
a1e80c64 T LSLCpkt_Prepare_Receiver_ID
a1e80c98 T LSLCpkt_Disable_Receiver
a1e80cb0 T _LSLCslot_Handle_Rx_Interrupt_Error
a1e80cd4 T LSLCslot_Switch_Slot
a1e80cf0 T LSLCslot_Write_BT_Clk_Avoid_Race
a1e80d44 T LSLCslot_Handle_AUX_TIM
a1e80d54 T LSLCslot_Handle_SYNC_DET
a1e80da0 T LSLCslot_Handle_TIM2
a1e81038 T LSLCslot_Handle_TIM3
a1e810f8 T LSLCslot_Handle_TIM1
a1e81170 T LSLCslot_Handle_TIM0
a1e813c0 T LSLCslot_Handle_PKD_RX_HDR
a1e81584 T LSLCslot_Handle_NO_PKT_RCVD
a1e8167c T LSLCslot_Handle_PKD
a1e81820 T LSLCslot_Handle_PKA
a1e81980 T _SHA_256_Chunk
a1e81bbc T _SHA_256_Finish
a1e81bf4 T _Mod2_Multiply_Kc
a1e81cb0 T _Mod2_Reduce_Kc
a1e81dec T _Byte_To_Reg_Array
a1e81e40 T _SHA_256_Step
a1e81f50 T LM_SecEng_Generate_Number
a1e82008 T _Byte_To_Reg_KC
a1e82038 T _Reg_To_Byte_KC
a1e82064 T LM_SecEng_Generate_Kc_Prime
a1e820dc T SHA_256_k
a1e822cc T HWdelay_Wait_For_us
a1e822f0 T HWdelay_Wait_For_Serial_Interface_Idle
a1e82300 T HWdelay_Wait_For_Serial_Interface_Busy_us
a1e82328 T BTq_Is_Queue_Not_Full
a1e82388 T BTq_Is_Queue_Empty
a1e823a8 T BTq_Get_Last_Enqueue
a1e823cc T BTq_Dequeue_Next_Data_By_Length
a1e8240c T BTq_Lelc_Get_Total_Num_Of_Queues
a1e82434 T BTq_Ack_Last_Dequeued
a1e825b8 T BTq_BB_Dequeue_Next_Synchronous
a1e82654 T BTq_Commit
a1e826d8 T BTq_Enqueue
a1e82880 T BTq_Reduce_Queue_Number_Of_Processed_Chunks
a1e82900 T BTq_LELC_BB_Dequeue_Next
a1e82990 T BTq_BB_Dequeue_Next
a1e82b38 T _Insert_Uint16
a1e82b48 T _Insert_Uint32
a1e82b5c T _Insert_Bd_Addr_In_PDU
a1e82b78 T HCeg_Encode_Event
a1e82c00 T HCeg_Inquiry_Result_Event
a1e82c9c T HCeg_Generate_Event
a1e83034 T HCeg_Hardware_Error_Event
a1e8305c T hc_event_param_len
a1e8309c T hc_format_events
a1e830ac T hc_event_format
a1e830f4 T LMch_CB_Enable_L2CAP_Traffic
a1e83130 T LMaclctr_Find_Device_Index
a1e83144 T LMaclctr_Find_Handle
a1e83184 T LMpol_Update_Poll_interval
a1e831c8 T LMpol_Get_Next_SCO_Link
a1e8321c T LMpol_Get_Slots_To_Next_SCO_Frame
a1e83278 T LMpol_Get_device_Interval_To_Next_Wakeup
a1e832b8 T LMpol_Get_Interval_To_Next_Wakeup
a1e83300 T LMpol_Adjust_Wakeup_Slot_Time
a1e834e0 T LMpol_Service_Imminent_Wakeup_Control
a1e83594 T LMscoctr_Get_Number_SYN_Connections
a1e835ac T LMscoctr_Find_SCO_By_SCO_Index
a1e835c4 T LMconfig_LM_Set_Device_State
a1e83610 T LMscan_Read_Scan_Enable
a1e8361c T LMinq_Get_Inquiry_Result_Mode
a1e83628 T LMtmr_Delist_Timer
a1e83690 T SYStmr_Clear_Timer
a1e836d8 T LLtmr_Clear_Timer
a1e836ec T LMtmr_Clear_Timer
a1e83700 T LMtmr_Enlist_Timer
a1e83788 T SYStmr_Reset_Timer
a1e83818 T LLtmr_Reset_Timer
a1e8382c T SYStmr_Set_Timer
a1e838fc T LLtmr_Set_Timer
a1e83914 T LMutils_Set_Uint32
a1e83928 T LMafh_LM_Read_AFH_Channel_Assessment_Mode
a1e8394c T LMafh_Is_Classification_Reporting
a1e83974 T LLutils_Set_Bd_Addr
a1e83984 T LLutils_Bd_Addr_Match1
a1e839d4 T LLutils_Get_Bd_Addr
a1e839f0 T LLutils_Bd_Addr_Match
a1e83a14 T LLutils_Array_Copy
a1e83a2c T LLutils_Get_Uint16
a1e83a3c T LLutils_Get_Uint24
a1e83a50 T LLutils_Get_Uint32
a1e83a6c T LLutils_Set_Uint16
a1e83a7c T LC_Get_Device_FHS_Ref
a1e83a88 T LC_Report_Device_Activity
a1e83aa8 T LC_Get_Piconet_Clock_Ex
a1e83b0c T LC_Wakeup
a1e83b54 T LSLCass_Is_Assessment_State
a1e83b8c T LSLCass_Record_Rx_RSSI_Channel
a1e83be8 T LSLCass_Record_No_Rx_Packet
a1e83c54 T LSLCass_Record_Rx_HEC_Event_Channel
a1e83cb4 T LSLCass_Record_Rx_CRC_Event_Channel
a1e83d14 T LSLCclk_Is_Safe_To_Read_Native_Clk
a1e83d40 T LSLCclk_Wait_For
a1e83d84 T LSLCfreq_Get_Frequency
a1e83d90 T LSLCfreq_Get_Last_Frequency_Clock
a1e83d9c T LSLCfreq_Assign_Frequency_Kernel
a1e83dd4 T LSLCfreq_Prepare_Frequency_Connection
a1e83f0c T LSLCfreq_Prepare_Rx_Frequency_R2P
a1e83f80 T LSLCfreq_Early_Prepare_TxRxFreqs_SlavePageResponse
a1e83fac T LSLCfreq_Prepare_Frequency_EIR
a1e83ff4 T LSLCfreq_Prepare_Frequency_Context
a1e84228 T LSLCfreq_Early_Prepare_Frequency_FHS_Response_ID
a1e8427c T LSLChop_Get_Frequency_Channel_Connection
a1e84294 T LSLChop_Build_Hop_Kernel
a1e84370 T LSLChop_Get_Next_Frequency
a1e84520 T LSLChop_Get_Table_Frequency_Page_FHS_Response_ID
a1e84540 T LSLChop_Get_TxRxFreqs_SlavePageResponse
a1e8457c T LSLChop_Set_Train
a1e84588 T LSLChop_Toggle_Train
a1e8459c T LSLChop_Get_X
a1e845b0 T LSLChop_Freeze_X_for_Page
a1e845cc T LSLChop_Set_X_for_Inquiry
a1e845e8 T LSLChop_Increment_X_Page_Scan
a1e845f8 T LSLChop_Increment_N_Inquiry_Scan
a1e84608 T LSLChop_Get_HSE_Engine
a1e84614 T _LSLChop_Inquiry_Frequency_Table_79hop
a1e84654 T bt_rx_test_calc_bit_error
a1e84714 T LSLCacc_Set_Am_Addr
a1e8472c T LSLCacc_Prepare_Tx_ID
a1e847ac T LSLCacc_Prepare_Tx_Rx_Encryption
a1e847bc T LSLCacc_Sync_Setup_SCO_CFG_Ex
a1e84824 T LSLCacc_Prepare_Rx_ID
a1e848a4 T LSLCacc_Prepare_Tx_Rx_EIR
a1e84934 T LSLCacc_Prepare_Rx_Return_To_Piconet
a1e8494c T LSLCacc_Prepare_Rx_Connection
a1e8495c T LSLCacc_Build_AccessCode
a1e8496c T LSLCacc_Build_EIR_Header
a1e849ac T LSLCacc_Build_EIR_Payload
a1e849e0 T LSLCacc_Build_ACL_Payload
a1e84a80 T _LSLCacc_Move_CC_Shadow_to_Hardware
a1e84b34 T LSLCacc_Discard_SCO_Payload
a1e84b40 T LSLCacc_Disable_Receiver
a1e84b68 T LSLCacc_Extract_FHS_Payload
a1e84b84 T LSLCacc_Extract_EIR_Payload
a1e84bc4 T LSLCacc_Enable_Low_Power_Mode
a1e84bd4 T LSLCacc_Disable_Low_Power_Mode
a1e84be8 T LSLCacc_Process_RSSI
a1e84c60 T LSLCacc_Attempt_RSSI_Read
a1e84c7c T LSLCacc_Process_Rx_Header
a1e84ec4 T _LSLCacc_Process_Rx_CRC
a1e850f0 T LSLCacc_Enable_Receiver
a1e85194 T LSLCacc_Disable_Transmitter
a1e851ec T LSLCacc_Enable_Transmitter
a1e852b8 T _LSLCacc_Loopback_Testmode_Payload
a1e8549c T LSLCacc_Build_SCO_Payload
a1e856b0 T LSLCacc_Build_FHS_Payload_Ex
a1e85720 T LSLCacc_Build_FHS_Payload
a1e85738 T _LSLCacc_Prepare_Tx_Complete_If_Same_Device
a1e8582c T _LSLCacc_Extract_Payload
a1e85c50 T LSLCacc_Process_No_Rx_Packet
a1e85c88 T LSLCacc_Extract_Packet
a1e85df4 T LSLCacc_Build_PacketHeader
a1e85edc T LSLCacc_Prepare_Tx_Rx_Connection
a1e86174 T LSLCacc_Prepare_Tx_Rx_FHS
a1e86274 T LSLCacc_Prepare_Rx_FHS
a1e8629c T lslc_acc_bbtest_Tim2
a1e86338 T lslc_acc_bbtest_pka
a1e863b0 T BT_start_rx_test_end
a1e86488 T bt_rx_Test_process_packet
a1e865d0 T bt_rx_Test_receive_hdr
a1e866e0 T LSLCafh_Backup_AFH_Link_State
a1e866f8 T LSLCafh_Restore_AFH_Link_State
a1e86710 T LSLCafh_Get_Frequency_Channel
a1e86800 T LSLCafh_Assign_AFH_Kernel
a1e86850 T USLCchac_Is_Inquiry_Scan_Rand_Wait
a1e86860 T USLCchac_Set_Device_State
a1e8686c T USLCchac_Get_Chan_Devicelink
a1e86884 T USLCchac_Procedure_Start
a1e86930 T USLCchac_Set_Active_Procedure
a1e8693c T USLCchac_Get_Active_Procedure
a1e86948 T USLCchac_Wakeup
a1e86958 T USLCchac_Procedure_Finish
a1e869cc T USLCchac_Procedure_Request
a1e86ac8 T USLCchac_get_device_state
a1e86afc T USLCchac_prepare_next_master_frame_activity
a1e86b74 T USLCchac_prepare_next_slave_frame_activity
a1e86bd8 T USLCchac_Process_Rx
a1e86c9c T USLCchac_Is_Procedure_Separable
a1e86ce4 T USLCchac_prepareRx
a1e86dd0 T USLCchac_get_next_frame_activity
a1e86f04 T USLCsched_Set_Software_Test_Values
a1e86f7c T USLCsched_Get_Next_Frame_Activity
a1e86f88 T USLCsched_Set_Next_Frame_Activity
a1e86f94 T USLCsched_Get_Current_Frame_Activity
a1e86fa0 T USLCsched_Get_Next_Device_Link
a1e86fac T _USLCsched_Find_Next_ACL_Link
a1e87050 T _USLCsched_Get_Next_Segment_Activity
a1e870dc T USLCsched_Set_Next_Device_Link
a1e87148 T _USLCsched_Prepare_Next_Frame_Activity
a1e8730c T USLCsched_Prepare_Rx
a1e873d0 T _USLCsched_Switch_Link
a1e87638 T _USLCsched_Get_Next_Frame_Activity
a1e87944 T USLCsched_Process_Rx
a1e87ab8 T USLCsched_Rx_Start
a1e87b74 T USLCsched_Tx_Complete
a1e87bdc T USLCsched_Prepare_Tx
a1e87dc0 T USLCsched_Tx_Start
a1e87efc T USLCtm_Get_Packet_Type
a1e87f08 T USLCtm_Test_Transmitter
a1e87fe8 T USLCtm_prepareTx
a1e88014 T USLCinq_Is_Extended_State
a1e88028 T _USLCinq_Extract_EIR
a1e88088 T _USLCinq_Extract_FHS
a1e881c8 T _USLCinq_Generate_ID
a1e881fc T USLCinq_Inquiry
a1e8831c T _USLCinqScan_Generate_EIR
a1e88354 T _USLCinqScan_Generate_FHS
a1e883b0 T _USLCinqScan_OS_START
a1e88430 T USLCinqScan_Cancel
a1e884e0 T USLCinqScan_Inquiry_Scan
a1e886b0 T _USLCpage_Setup_DL_to_CAC
a1e886e4 T _USLCpage_Resume_Paging
a1e88718 T _USLCpage_Generate_ID
a1e8874c T USLCpage_Page
a1e88a00 T USLCpageScan_Cancel
a1e88a18 T _USLCpageScan_Process_ID_Pkt_During_Scanning
a1e88a50 T _USLCpageScan_OS_START
a1e88ae8 T USLCpageScan_Page_Scan
a1e88f2c T USLCmss_Slave_A_Perform_TDD_Switch_
a1e88fa4 T USLCmss_Cancel
a1e88fd4 T USLCmss_State_Dispatcher
a1e897b8 T USLCsleep_Restore_BT_Clock
a1e89830 T USLCsleep_State_Dispatcher
a1e89a44 T USLCsleep_Wakeup
a1e89a60 T USLCr2p_Read_R2P_Search_Window_num
a1e89a6c T USLCr2p_Get_Search_Window_Frames
a1e89b40 T USLCr2p_State_OS_RECONNECTING_
a1e89c94 T USLCr2p_State_OS_START_
a1e89d74 T USLCr2p_Cancel
a1e89d98 T USLCr2p_State_Dispatcher
a1e89df8 T USLCr2p_Request
a1e89e7c T uslc_r2p_state_jump_table_
a1e89e8c T USLCsp_Get_Activated_Device_Index
a1e89e98 T USLCsp_Get_Activated_Piconet_Index
a1e89ea4 T _USLCsp_Switch_Piconet_Clock
a1e89edc T USLCsp_Set_Activated_Device_Index
a1e89ef8 T USLCsp_Switch_Link
a1e8a068 T DL_Alloc_Am_Addr
a1e8a0a0 T DL_Free_Am_Addr
a1e8a0b4 T DL_Get_Device_Ref
a1e8a0d0 T DL_Free_Piconet_Index
a1e8a0ec T DL_Use_Local_Tx_Descriptor
a1e8a0f8 T DL_Assign_Piconet_Index
a1e8a150 T DL_Reset_New_Connection
a1e8a1ec T Lelcacc_Set_Lectrlreg
a1e8a25c T Lelcacc_Set_Lectrlexreg
a1e8a2fc T Lelcacc_set_txon_standby
a1e8a320 T Lelcacc_set_rxon_standby
a1e8a344 T Lelcacc_set_txrxon_standby
a1e8a39c T Lelcacc_Process_Pkd_Header
a1e8a494 T Lelcacc_Process_Rx_Advert_Packet
a1e8a4dc T Lelcacc_Copy_Tx_Data_Advert
a1e8a50c T Lelcacc_Generate_Packet_Connreq
a1e8a570 T Lelcacc_Set_Cipher_Input_Data
a1e8a590 T Lelcacc_Set_Cipher_Packet_Cnt_Low
a1e8a59c T Lelcacc_Start_Cipher_Ctrl_Reg
a1e8a614 T Lelcacc_Stop_Cipher_Ctrl_Reg
a1e8a628 T Lelcacc_Check_Data_Valid
a1e8a640 T Lelcacc_test_tx_packet_pka
a1e8a66c T Lelcacc_Wait_Cipher_Done
a1e8a690 T Lelcacc_test_Set_Advert_Lecrcreg
a1e8a700 T Lelc_prepare_receive_test_packet
a1e8a7c4 T Lelcacc_test_rx_packet_pkd
a1e8a7f8 T Lelcacc_Get_Cipher_Output_Data
a1e8a814 T Lelcacc_Copy_Tx_Data
a1e8a89c T Lelcacc_Extract_Packet
a1e8a918 T Lelcacc_Classify_Packet
a1e8a9c8 T Lelcacc_Process_Rx_Data_Packet
a1e8aa9c T Lelcacc_Process_Rx_Packet
a1e8aae0 T Lelcacc_Set_Lecrcreg
a1e8ab38 T Lelcacc_Prepare_Packet
a1e8ac1c T Lelcacc_Generate_Packet_Data
a1e8ac40 T Lelcacc_Generate_Packet_Null
a1e8ac70 T Lelcacc_Prepare_Receive_Advert_Rsp
a1e8ad20 T Lelcacc_Prepare_Receive_Data_Packet
a1e8ae7c T Lelcacc_Prepare_Receive_Advert
a1e8aef4 T Lelcacc_Generate_Packet_Scanrsp
a1e8af68 T Lelcacc_Generate_Packet_Scanreq
a1e8afec T Lelcacc_Generate_Packet_Advert
a1e8b07c T Lelcfreq_Init_DL_Channel_Para
a1e8b0ec T Lelcfreq_Get_Connect_Event_Channel_Index
a1e8b128 T Lelcfreq_Prepare_Next_Unmap_Channel
a1e8b148 T Lelcfreq_Get_Freq_From_Index
a1e8b180 T Lelc_Set_Chan_state
a1e8b1d8 T Lelcchan_Set_Advert_idle
a1e8b1ec T Lelcchan_Set_Init_idle
a1e8b200 T Lelc_Get_Chan_State
a1e8b20c T Lelc_Set_Init_Req
a1e8b218 T Lelcchan_get_next_frame_chan_activity
a1e8b26c T Lelcchan_Is_Chan_Uninterruptable
a1e8b288 T Lelcchan_Quit_Adv_Scan_For_Conn
a1e8b300 T Lelcchan_process_advert_tim2
a1e8b394 T Lelcchan_process_advert_pkd_nopkd
a1e8b3dc T Lelcchan_process_advert_pka
a1e8b420 T Lelcinit_Check_State_Idle
a1e8b430 T Lelcinit_Optimize_Conn_Win_Offset
a1e8b49c T Lelcinit_receive_pkt_check
a1e8b508 T Lelcinit_Prepare_Scan
a1e8b550 T Lelcinit_wait_for_next_scan
a1e8b584 T Lelcinit_Init
a1e8b5a4 T Lelcinit_Stop
a1e8b5c0 T Lelcinit_init_scan
a1e8b7f4 T LelcConn_Set_Current_Active_Link
a1e8b800 T LelcConn_Get_Current_Active_Link
a1e8b80c T LelcConn_Check_Last_Window_Windening
a1e8b85c T LelcConn_Adjust_Slave_Anchorpoint_Clock
a1e8b8b4 T Lelcconn_Get_Connect_Next_Anchorpoint_except
a1e8b93c T LelcConn_Forward_Anchor_Point
a1e8b990 T LelcConn_Check_Queue_Empty
a1e8b9b4 T Lelc_Get_Link_Tx_Activity
a1e8ba60 T Lelcconn_Process_Master_Anchorpoint_start
a1e8babc T Lelc_Wait_For_Next_Anchor_Point
a1e8bb68 T Lelcconn_Process_Event_Nopkd
a1e8bbc4 T Lelcconn_Process_Event_Pkd
a1e8bd4c T Lelcconn_Process_Event_Pka
a1e8bdbc T Lelc_Check_Pka_Missed
a1e8be04 T Lelcconn_Process_Event_Tim
a1e8bf34 T LelcConn_Channel_Map_Update_Check
a1e8bf74 T LelcConn_Connection_Update_Check
a1e8c004 T LelcConn_Is_Next_Frame_Slave_Activity
a1e8c150 T LelcConn_Is_Next_Frame_Master_Activity
a1e8c264 T Lelcdl_Is_Link_Used
a1e8c274 T Lelcdl_Alloc_Link
a1e8c2f4 T Lelc_Clear_Conf_Link_Update_Pending
a1e8c30c T Lelc_Conf_Link_Sort
a1e8c368 T Lelc_Conf_Link_Add
a1e8c430 T Lelc_Conf_Link_Check
a1e8c450 T Lelc_Conf_Offset_Sort
a1e8c4a4 T Lelc_Conf_Offset_Gap
a1e8c4c0 T Lelc_Conf_Max_Offset_Gap
a1e8c5b0 T Lelcdl_Set_Next_Conn_Event_Count
a1e8c5c0 T Lelcdl_Is_Master_Update_Pending
a1e8c60c T Lelcdl_Set_Operation_Pending_Bit
a1e8c618 T Lelcdl_Reset_Operation_Pending
a1e8c620 T Lelcdl_Get_Operation_Pending_Bit
a1e8c62c T Lelcdl_Update_Supervision_Timeout
a1e8c648 T Lelc_Conf_Min_Offset_Gap
a1e8c728 T Lelc_Conf_Link_Slave_Check
a1e8c770 T Lelc_Conf_Link_Array_Init
a1e8c7e8 T Lelcdl_Free_Link
a1e8c890 T lelc_sleep
a1e8c894 T LELCsleep_Wakeup
a1e8c8f4 T Lelcacc_Record_Rx_CRC_Event_Channel
a1e8c958 T Lelcacc_Record_No_Rx_Packet
a1e8c988 T Lelcacc_Get_Rssi
a1e8c9b4 T Lelcacc_Calculate_Rssi_Average
a1e8ca34 T BTtimer_Set_Slots
a1e8ca6c T BTtimer_Set_Ticks
a1e8ca98 T BTtimer_Is_Expired
a1e8cad0 T BTtimer_Piconet_Reset_Slots
a1e8cae0 T BTtimer_Piconet_if_Expired
a1e8cb08 T BTtimer_Piconet_Reset_Delta_Slots
a1e8cb44 T BTtimer_Is_Expired_For_Time
a1e8cb5c T BTtst_Get_DUT_Mode
a1e8cb68 T EncodeDataParam
a1e8cc48 T EncodeData
a1e8ccc0 T SYSrand_Get_Rand
a1e8cd08 T SYSrand_Get_Rand_Ex
a1e8cd54 T SYSconst_Packet_Length
a1e8cd74 T SYSconst_EDR_Packet_Length
a1e8cd94 T TCeg_Command_Complete_Event
a1e8cec8 T tc_cmd_complete_event_array
a1e8cf30 T whitelist_item_check
a1e8cfa0 T LL_Whitelist_Check
a1e8cfc8 T LLch_Channel_Map_Update_Callback
a1e8cfec T LLch_Start_Enc_Req_Callback
a1e8d014 T LL_Set_Operation_Pending_Timer
a1e8d0a4 T _Send_Ll_Control_PDU
a1e8d29c T LLch_Pause_Enc_Rsp_Callback
a1e8d2dc T LL_Auth_Payload_Timeout
a1e8d310 T LLch_Detach_Ack_Callback
a1e8d35c T LL_Encode_Msg_Timeout
a1e8d3d4 T LLch_Start_Enc_Rsp_Callback
a1e8d410 T LLch_Connect_Update_Callback
a1e8d448 T LL_CONTROL_INFO_LEN
a1e8d460 T LLsec_Set_Next_Tx_Pkt_Cnt
a1e8d488 T LLsec_Set_Next_Rx_Pkt_Cnt
a1e8d4b0 T LLsec_Ccm_Decrypt
a1e8d524 T LLsec_Ccm_Encrypt
a1e8d580 T LLsec_Set_Local_Sec_Param
a1e8d5a4 T LLlink_Prepare_Fill_Conn_Remote_Param
a1e8d604 T LLlink_Move_Conn_Anchor_Point_Slave
a1e8d64c T LLlink_Move_Conn_Anchor_Point_Master
a1e8d68c T LLlink_Auth_Payload_Timeout_Event
a1e8d6a8 T LLlink_Encrypt_Keyrefresh_Complete_Event
a1e8d6c8 T LLlink_Encryption_Change_Event
a1e8d6f0 T LLlink_Feedback_Sec_Result
a1e8d714 T LLlink_Connect_Update_Complete_Event
a1e8d74c T connect_complete_event
a1e8d7d4 T LLlink_Remote_Features_Complete_Event
a1e8d81c T LLlink_Remote_Version_Complete_Event
a1e8d874 T LLlink_Disconnection_Complete_Event
a1e8d8dc T LLlink_Supervision_Timeout_Check
a1e8d918 T LLlink_Connection_Complete_Event
a1e8d93c T Lelcscan_wait_for_next_scan
a1e8d960 T Lelcscan_check_advert_pkt
a1e8da28 T Lelcscan_continue_scan_advert
a1e8da50 T Lelcscan_prepare_scan
a1e8da88 T Lelcscan_Send_Advert_Report
a1e8dab4 T Lelcscan_Add_A_Duplicate_Addr
a1e8daf0 T Lelcscan_Is_A_Duplicate_Addr
a1e8db38 T Lelcscan_gen_advert_report
a1e8db88 T Lelcscan_scan
a1e8dd44 T Lelcadvert_Stop
a1e8dd74 T Lelcadvert_Wait_for_next_Connect_Event_window
a1e8ddb0 T Lelcadvert_send_adv_pkt
a1e8de14 T Lelcadvert_Init_Link
a1e8dedc T Lelcadvert_receive_pkt_check
a1e8dfc4 T Lelcadvert_prepare_next_packet
a1e8e010 T Lelcadvert_advert
a1e8e2e4 T hw_memcpy8
a1e8e2fc T hw_memset8
a1e8e30c T SYSirq_Check_IRQ_Num_Handler
a1e8e350 T SYSirq_Disable_Interrupts_Save_Flags
a1e8e370 T SYSirq_Interrupts_Restore_Flags
a1e8e38c T SYSpwr_Halt_Fun
a1e8e3ac T SYSpwr_LowFrequencyOscillatorAvailable
a1e8e3b8 T SYSpwr_Setup_Sleep_Timer
a1e8e460 T SYSpwr_Get_Min_Frames_To_Sleep
a1e8e464 T SYSpwr_use_lf_change
a1e8e484 T _SYSpwr_Setup_26M
a1e8e4e8 T SYSpwr_Sleep_System
a1e8e534 T SYSpwr_Halt_System
a1e8e600 T SYSpwr_Handle_Early_Wakeup
a1e8e650 T _HWradio_SetGios_Standby
a1e8e768 T _HWradio_SetGios_TxRx
a1e8e8dc T _HWradio_SetGios_FullRx
a1e8e980 T _HWradio_SetGios_SlavePageResp
a1e8ea04 T _HWradio_SetGios_MasterDoub
a1e8eb08 T HWradio_Rx_PacketExtend
a1e8ebb4 T HWradio_Tx_PacketExtend
a1e8ec58 T HWradio_SetNextFrameTxRX_Low
a1e8ec98 T HWradio_SetCurrentFrameTx_Low
a1e8ecd0 T HWradio_SetCurrentFrameRx_Low
a1e8ed00 T HWradio_SetNextFrameTxRX_on
a1e8ed40 T HWradio_SetTXRX_ovrridelow
a1e8edb8 T HWradio_SetTX_ovrridelow
a1e8ee0c T HWradio_SetRX_ovrridelow
a1e8ee4c T HWradio_CancelTXRX_ovrridelow
a1e8eec8 T HWradio_TxComplete
a1e8ef84 T HWradio_RxComplete
a1e8f034 T HWradio_GetRadioMode
a1e8f040 T HWradio_Set_Tx_Power_Level
a1e8f05c T Convert_RSSI_to_dBm_
a1e8f080 T HWradio_Read_RSSI
a1e8f0ac T HWradio_Exit_Low_Power_Mode_Request
a1e8f0e4 T HWradio_Get_Radio_Driver_Status
a1e8f0f0 T _HWhab_Write_Serial_Word
a1e8f10c T HWradio_SetFrequency_Command
a1e8f214 T _HWhab_Read_Serial_Word
a1e8f278 T HWradio_Update_Internal_RSSI_Cache
a1e8f2a8 T HWradio_Setup_Radio_For_Next_Half_Slot
a1e8f564 T _HWradio_ProgNow
a1e8f5c8 T hwradio_write_LE_Freq
a1e8f5f8 T HWradio_Service
a1e8f97c T HWradio_Enter_Low_Power_Mode_Request
a1e8fa08 T HWradio_SetFrequency
a1e8fa28 T HWradio_SetRadioMode
a1e8fbe4 T SYS_ASSERT
a1e8fbfc T BTCPU_SendEvent
a1e8fc90 T SYS_SendEvent
a1e8fcb4 T excu_trap_fun1
a1e8fccc T excu_trap_fun2
a1e8fce4 T excu_trap_fun3
a1e8fcfc T excu_trap_fun4
a1e8fd14 T excu_trap_fun5
a1e8fd2c T excu_trap_fun6
a1e8fd44 T excu_trap_fun7
a1e8fd5c T excu_trap_fun8
a1e8fd74 T excu_trap_fun9
a1e8fd8c T excu_trap_fun10
a1e8fda4 T excu_trap_fun11
a1e8fdbc T excu_trap_fun12
a1e8fdd4 T excu_trap_fun13
a1e8fdec T excu_trap_fun14
a1e8fe04 T excu_trap_fun15
a1e8fe1c T excu_trap_fun16
a1e8fe40 A _btrom_data_base
a1e8fee0 A _btrom_data_end
a1e8fffc d .bt_inter_rom.crc
a1e8fffc A _bt_rom_end
a2000000 ? .spi_reg_debug
a2000000 A _ram_spi_reg_debug_uncached_start
a2000000 ? _spi_reg_debug_start
a2000780 A _ram_available_base
a2000780 A _ram_bss_end
a2000780 A _ram_bss_start
a2000780 A _ram_spi_reg_debug_uncached_end
a8000000 t .flash_start_code
a8000000 T _flash_btcpu_start
a8000000 A _flash_start
a8000000 A _iota_flash_start
a8000000 t flash_valid_flag
a8000004 t flash_testmode_flag
a8000008 t flash_cdacdelta_value
a800000c t flash_resource_addr
a800001c t flash_xcpu_start_addr
a8000030 t .bt_boot_code
a8000030 A _bt_flash_start
a8000030 T entry
a8000040 T BT_CPU_Main
a8000040 A _btflash_start
a8000214 A _bt_rom_flash_start_location
a8000ee4 b .crossrefs
a8000ee4 A _btrom_flash_start_location
a8000ef0 t .bt_rotext
a8000ef0 T dbg_GdbPrint
a8000ef0 T hal_DbgGdbPrintf
a8000f00 T _bt_gdb
a800113c T SYS_SendEvent2
a80011b0 T SYS_ASSERT2
a80011d8 T btcpu_DbgWatchDogStop
a80011e4 T btcpu_GdbBreaks
a8001204 T btcpu_GdbPrepare
a800124c T btcpu_GdbSendcmd
a800125c T btcpu_GdbIrqDebug
a8001260 T btcpu_GdbLoop
a8001368 T btcpu_GdbBreakRaise
a80013d4 T btcpu_GdbBreakSoftBreakPoint
a8001428 T btcpu_GdbBreakBreakPoint
a8001468 T btcpu_GdbBreakPrint
a80014c0 T btcpu_GdbException
a8001534 T btcpu_GdbBreakDivBy0
a80015e0 T rdabt_adp_msg_dispatch
a80016e8 T rdabt_init
a8001748 T rdabt_msg_callback
a800179c T rdabt_fcc_test_stop
a80017ac T rdabt_fcc_test
a80018fc T BT_Register_Modules
a8001924 T rdabt_adp_free_le
a8001934 T rdabt_adp_free_br
a800194c T rdabt_register_sdp
a800195c T rdabt_active_success
a8001994 T rdabt_handle_app_msg
a8001e38 T rdabt_get_bt_msg
a8001e80 T rdabt_wait_xcpu_busy
a8001e94 T rdabt_clear_btcpu_busy
a8001ea0 T rdabt_send_msg_to_xcpu
a8001f30 T Rdabt_vco_test_Write_r21
a8001f5c T tgt_GetBtStackConfig
a8001f68 T tgt_GetBtStackModuleList
a8001f74 T rdabt_att_layer_ctrl
a8001f88 T att_channel_handler
a8001fe8 T rdabt_att_msg_dispatch
a8002064 T att_handle_value_change
a80020cc T att_execute_write_rsp
a8002100 T att_prepare_write_rsp
a8002178 T att_write_rsp
a80021ac T att_read_by_group_type_rsp
a800220c T att_read_by_type_rsp
a800226c T att_find_info_rsp
a80022cc T att_mtu_rsp
a8002314 T att_error_rsp
a800237c T att_deliver_pdu
a80023d8 T att_read_multiple_rsp
a80023f8 T att_read_blob_rsp
a8002418 T att_read_rsp
a8002438 T att_find_by_type_value_rsp
a8002458 T att_srv_remove_from_device_ccb
a8002484 T att_srv_find_the_device_ccb
a80024c0 T gatt_get_last_handle
a80024cc T gatt_init_server
a80024d8 T att_srv_paired_ind
a8002540 T gatt_find_atthandle_by_uuid
a8002650 T uuid_cmp
a80026d0 T gatt_find_atthandle_by_luuid
a8002710 T att_srv_handle_value_change
a80027f0 T att_srv_handle_value_comfirmation_handler
a80028e0 T att_add_attribute
a8002934 T att_srv_update_attribute
a8002a38 T att_srv_execute_write_req_handler
a8002b58 T att_srv_write_command_handler
a8002bb4 T att_srv_disconnect_ind
a8002cac T att_srv_prepare_write_req_handler
a8002d70 T att_srv_write_req_handler
a8002dec T att_srv_remove_attribute
a8002e20 T att_srv_read_by_group_type_req_handler
a8002f7c T att_srv_read_multiple_req_handler
a8003044 T att_srv_read_blob_req_handler
a80030d8 T att_srv_read_req_handler
a8003164 T att_srv_read_by_type_req_handler
a8003384 T att_srv_find_by_type_value_req_handler
a80034a4 T att_srv_find_info_req_handler
a80035a0 T att_srv_mtu_req_handler
a80035e0 T att_srv_handler
a80037f0 T att_srv_connect_ind
a80038b4 T att_server_init
a80038e0 T BT_Set_Init_Filter
a8003900 T BT_Initialise
a8003abc T patch_bt_rx_Test_receive_hdr
a8003acc T patch_bt_rx_Test_process_packet
a8003ae8 T patch_lslc_acc_bbtest_pka
a8003af8 T BT_Set_Reset_Delay
a8003b04 T _BTms_Handle_HC_Sleep_If_Reqd
a8003b34 T _BTms_Handle_HC_Reset_If_Reqd
a8003b94 T BTms_Request_HC_Reset
a8003be0 T BTms_Sched
a8003cdc T BTtst_Initialise
a8003cf0 T BTtst_Read_Loopback_Mode
a8003cfc T BTtst_Set_DUT_Mode
a8003d08 T _BTtst_Enter_Local_Loopback
a8003da8 T _BTtst_Exit_Local_Loopback
a8003e10 T BTtst_Write_Loopback_Mode
a8003e78 T gap_value_change_cb
a8003ea4 T gatt_server_req
a8003ecc T gatt_add_service
a8003f24 T gatt_add_basic_service
a8003f48 T HCeg_Initialise
a8003f7c T HCeg_Set_Event_Mask
a8003fcc T LL_Event_Mask_Init
a8003fdc T HCeg_LE_Set_Event_Mask
a8004014 T HCeg_LE_Is_Event_Masked_On
a8004028 T HCeg_Is_Event_Masked_On
a8004050 T HCeg_Loopback_Command_Event
a80040a4 T HCeg_Command_Status_Event
a80040f4 T HCeg_Inquiry_Result_Event_Z
a800419c T HCeg_Generate_Event_Z
a80041ec T HCeg_Prepare_Command_Complete_Event_Read_Clock_Payload
a80042d8 T HCeg_Command_Complete_Event
a800458c T HCfc_Host_Buffer_Size
a80045d8 T HCfc_Read_SYN_Flow_Control_Enable
a80045e4 T HCfc_Write_SYN_Flow_Control_Enable
a800460c T HCfc_Set_Host_Controller_To_Host_Flow_Control
a8004634 T HCfc_Release_All_SYN_Queue_Packets
a800467c T HCfc_Release_All_Data_Queue_Packets
a80046c4 T HCfc_Host_Number_Of_Completed_Packets
a80047b4 T HCfc_Initialise
a80047fc T HCfc_Get_Next_HC_to_Host_SYN_Descriptor
a8004854 T HCfc_Get_Next_HC_to_Host_Data_Descriptor
a8004894 T rdabt_hci_FreeWriteBuffer
a80048b8 T rdabt_hci_GetWriteBuffer
a8004930 T rdabt_hci_GetCommandBuffer
a800496c T rdabt_hci_complete_acl_packet
a8004990 T HCI_LERemoteConnectionParameterRequestReply
a80049dc T HCI_WriteLeHostSupported
a80049f8 T HCI_LELongTermKeyRequestNegativeReply
a8004a14 T HCI_LELongTermKeyRequestReply
a8004a30 T HCI_LEConnectionUpdate
a8004a7c T HCI_LESetAdvertiseEnable
a8004a94 T HCI_LESetAdvertisingData
a8004ab0 T HCI_LESetAdvertisingParameters
a8004b04 T HCI_LESetEventMask
a8004b1c T HCI_Read_Raw_Rssi
a8004b38 T HCI_CalibClock
a8004b4c T HCI_EnableDUT
a8004b60 T HCI_LocalExtendedFeatures
a8004b78 T HCI_ReadBDAddress
a8004b8c T HCI_ReadLocalSupportedFeatures
a8004ba0 T HCI_ReadLocalVersionInformation
a8004bb4 T HCI_WriteDefaultErroneousDataReporting
a8004bcc T HCI_WriteSimplePairingMode
a8004be4 T HCI_RefreshEncryptionKey
a8004c00 T HCI_WriteExtendedInquiryResponse
a8004c1c T HCI_WriteInquiryMode
a8004c34 T HCI_WriteLinkSupervisionTimeout
a8004c54 T HCI_WriteAutomaticFlushTimeout
a8004c74 T HCI_WriteVoiceSetting
a8004c90 T HCI_WriteClassOfDevice
a8004ca8 T HCI_WriteInquiryScanActivity
a8004cc8 T HCI_WritePageScanActivity
a8004ce8 T HCI_WriteScanEnable
a8004d00 T HCI_ReadLocalName
a8004d14 T HCI_ChangeLocalName
a8004d2c T HCI_DeleteStoredLinkKey
a8004d48 T HCI_Reset
a8004d5c T HCI_SetEventMask
a8004d74 T HCI_WriteLinkPolicySettings
a8004d94 T HCI_SwitchRole
a8004db0 T HCI_RoleDiscovery
a8004dcc T HCI_ExitSniffMode
a8004de8 T HCI_SniffMode
a8004e24 T HCI_IOCapabilityRequestNegativeReply
a8004e40 T HCI_RemoteOOBDataRequestNegativeReply
a8004e58 T HCI_UserPasskeyRequestNegativeReply
a8004e70 T HCI_UserPasskeyRequestReply
a8004e88 T HCI_UserConfirmationRequestNegativeReply
a8004ea0 T HCI_UserConfirmationRequestReply
a8004eb8 T HCI_IOCapabilityRequestReply
a8004ee0 T HCI_AcceptSynchronousConnectionRequest
a8004f1c T HCI_SetupSynchronousConnection
a8004f60 T HCI_ReadClockOffset
a8004f7c T HCI_ReadRemoteVersionInformation
a8004f98 T HCI_ReadRemoteSupportedFeatures
a8004fb4 T HCI_RemoteNameRequestCancel
a8004fcc T HCI_RemoteNameRequest
a8004ff4 T HCI_SetConnectionEncryption
a8005014 T HCI_AuthenticationRequested
a8005030 T HCI_PINCodeRequestNegativeReply
a8005048 T HCI_PINCodeRequestReply
a8005068 T HCI_LinkKeyRequestNegativeReply
a8005080 T HCI_LinkKeyRequestReply
a8005098 T HCI_RejectConnectionRequest
a80050b4 T HCI_AcceptConnectionRequest
a80050d0 T HCI_Disconnect
a80050f0 T HCI_CreateConnection
a8005130 T HCI_InquiryCancel
a8005144 T HCI_Inquiry
a8005168 T HCI_WriteCurrentIACLAP
a8005218 T rdabt_hci_receive_scodata
a8005278 T HCI_SendSCOData
a80052f0 T HCI_SendRawPDU
a800531c T host_buf_reserve_header
a8005338 T host_buf_release_header
a8005348 T host_buf_free
a800535c T host_buf_alloc
a80053ac T RDABT_GetHostState
a80053b8 T RDABT_SetHostState
a80053c4 T RDABT_GetHostMode
a80053d0 T RDABT_AddModule
a80053f0 T rdabt_core_check_ble
a8005420 T rdabt_get_host_config
a8005474 T RDABT_Reset
a8005498 T RDABT_Start_Up
a80054ec T RDABT_Mode_Switch
a8005554 T RDABT_Shut_Down
a8005594 T rdabt_hci_HandleTimer
a8005738 T rdabt_system_scheduler_execute
a8005748 T RDABT_Initialise
a8005874 T RDABT_Execute
a8005914 T rdabt_mem_initialise
a8005964 T rdabt_mem_collect
a8005968 T delete_ptr_from_array
a80059a4 T add_ptr_to_array
a80059e0 T rdabt_free
a8005ac8 T rdabt_mem_set_dualport_heap
a8005af8 T rdabt_malloc
a8005c00 T rdabt_enqueue_message
a8005cc4 T rdabt_free_last_message
a8005d60 T rdabt_get_next_message
a8005de0 T RDABT_Send_Message
a8005e64 T rdabt_message_initialise
a8005eb0 T host_timer_enlist
a8005f40 T host_timer_delist
a8005fac T rdabt_handle_expired_timers
a8006064 T rdabt_cancel_timer
a80060a8 T rdabt_change_timer
a8006100 T rdabt_timer_create
a80061bc T rdabt_timer_reset
a80061e8 T rdabt_timer_initialise
a8006234 T HWdelay_Wait_For_ms
a8006258 T HWdelay_Calibrate_
a8006328 T HWdelay_Initialise
a8006350 T _HWlc_Clear_Jalapeno_Registers
a80063f8 T HWlc_Initialise
a8006544 T HWradio_Reset
a800657c T HWradio_Set_DriverData
a80065bc T HWradio_SetTX_ovrridehigh
a8006620 T HWradio_Initialise
a80066e4 T HWradio_Initialise_RF
a8006744 T rdabt_l2_chn_stop_cfg_timer
a8006768 T rdabt_l2_chn_disable_RTX_timer
a8006794 T rdabt_l2_chn_start_ERTX_timer
a80067cc T rdabt_l2_chn_start_cfg_timer
a80067f8 T rdabt_l2_chn_start_RTX_timer
a8006830 T rdabt_l2_chn_set_qos
a800687c T rda_l2_free_fixed_channel
a80068bc T rda_l2_alloc_fixed_channel
a8006924 T rdabt_l2_chn_alloc_channel
a8006998 T rdabt_l2_chn_get_p_channel
a80069ec T rdabt_l2_chn_handle_in_use
a8006a38 T rdabt_l2_chn_free_channel
a8006af4 T rdabt_l2_disconnect_req_timeout
a8006b30 T rdabt_l2_chn_tid2channel
a8006b6c T rdabt_l2_chn_cfg_timer_expired
a8006b98 T rdabt_l2_chn_timer_expired
a8006c50 T rdabt_l2_chn_free_channels_on_handle
a8006d2c T rdabt_l2_config_helper_startup
a8006d60 T rdabt_l2cap_config_helper_remove_all_connections
a8006d88 T rdabt_l2_config_helper_shutdown
a8006db0 T rdabt_l2cap_config_helper_remove_connection
a8006dd4 T rdabt_l2_config_helper_remove_cid
a8006dfc T rdabt_l2cap_config_helper_remove_connection_by_conn
a8006e24 T rdabt_l2cap_config_helper_lookup_connection
a8006e48 T rdabt_l2cap_config_helper_add_connection
a8006e60 T rdabt_l2_configure_helper_confirmation
a8006f0c T rdabt_l2_configure_helper_indication
a8006ffc T rdabt_l2_configure_helper_conn_confirm
a800708c T L2_ConnectResponseandConfig
a8007128 T L2_ConnectandConfig
a80071c8 T rdabt_l2_config_build_config_req_pdu
a8007210 T rdabt_l2_config_send_config_req_pdu
a8007264 T L2_ConfigureResponse
a80073c0 T L2_Configure
a8007498 T rda_l2_get_fixed_info
a80074b8 T L2_ConnectResponse
a8007540 T L2_OutgoingAccessRequest_Callback
a80075bc T L2_Disconnect
a8007628 T rda_l2_get_extended_features
a800763c T rdabt_l2_configure_response_handler
a8007778 T rdabt_l2_configure_request_handler
a8007884 T rdabt_l2_connect_response_handler
a8007924 T rdabt_l2_connect_request_handler
a8007aa0 T L2_IncomingAccessRequest_Callback
a8007b4c T L2_GetInfo
a8007be8 T rdabt_l2_connect_lp_connect_cfm
a8007e54 T l2_Get_info_cb
a8007ef8 T rdabt_l2_connect_disconnect_ind
a8007f58 T rdabt_l2_information_response_handler
a80080cc T rdabt_l2_connect_incoming_pdu
a800833c T L2_Connect_Ex
a800850c T rdabt_l2_enc_derive_identifier
a8008528 T rdabt_l2_enc_set_cur_ident
a80086c0 T rdabt_l2_encode_packet
a8008a40 T rdabt_l2_decode_packet
a8008e9c T rdabt_l2_psm_get_module_id
a8008f28 T rdabt_l2_psm_event
a8008f4c T rdabt_l2_sar_data_req
a8009040 T rdabt_l2_sar_data_ind
a80091e4 T rdabt_l2_utils_addr_match
a800921c T rdabt_l2_utils_out_mtu
a8009244 T rdabt_l2cap_msg_dispatch
a80092d4 T rdabt_Tol2connect_lp_timerout
a80093cc T rdabt_l2cap_layer_ctrl
a8009404 T rdabt_l2_utils_set_bd_addr
a8009414 T L2_RetrieveHandle
a800943c T L2_Write
a8009468 T L2_GetWriteBuffer
a8009484 T LC_Reset_All_Callbacks
a80094a8 T LC_Get_Hardware_SCO_CFG
a8009534 T LC_Register_Event_Handler
a8009544 T LC_Read_Local_Device_Jitter
a8009564 T LC_Read_Local_Device_Drift
a8009584 T LC_Read_Local_Device_Class
a800959c T LC_Write_Local_Device_Class
a80095b0 T LC_Null_Callback
a80095b4 T LC_Write_Device_Drift
a80095d4 T LC_Write_Device_Jitter
a80095f4 T LC_Write_Remote_Slot_Offset
a800962c T LC_Read_Local_Slot_Offset
a8009658 T LC_Read_Clock_Offset
a800966c T LC_Decr_Power
a80096c8 T LC_Max_Power
a80096e8 T LC_Incr_Power
a8009738 T LC_Write_Power
a80097b4 T LC_Read_Power
a8009810 T LC_Create_Connection
a80098c4 T LC_Sleep
a8009914 T LC_Free_Link
a800998c T LC_Alloc_Link
a80099b8 T LC_Is_Valid_SCO_Conversion
a80099d8 T LC_Initialise
a8009bc4 T Lelcacc_Init
a8009c40 T Lelcacc_Get_From_Uint8
a8009c94 T Lelcacc_Set_Cipher_Input_Key
a8009cb0 T Lelcacc_Set_Cipher_Iv
a8009ccc T Lelc_Stop_Test
a8009d00 T Lelcacc_General_Test_Pattern
a8009dac T Lelcacc_Test_End
a8009de4 T Lelcacc_Receive_Test
a8009e28 T Lelcacc_prepare_test_tx_packet
a8009f04 T Lelcacc_Transmit_Test
a8009f34 T Lelcacc_prepare_test_tx_continuous_packet
a8009f88 T Lelcacc_Initialise_Device_Channel
a800a070 T Lelcchan_Set_Scan_idle
a800a084 T Lelc_Set_Advert_Req
a800a090 T Lelc_Set_Scan_Req
a800a09c T Lelcchan_Init
a800a0b4 T Lelc_Initialise
a800a104 T Lelcconn_Init
a800a110 T Lelcdl_Init
a800a124 T Lelcdl_Clear_Operation_Pending_Bit
a800a134 T Lelcdl_Free_All_Links
a800a1b8 T Lelcfreq_Init_Chm_Hop
a800a1f0 T Lelcfreq_Set_Host_Channel_Classification
a800a294 T Lelcscan_Get_Enable
a800a2a0 T Lelcscan_Set_Param
a800a318 T Lelcscan_Is_Scan_Active
a800a32c T Lelcscan_scan_stop
a800a370 T Lelcscan_scan_start
a800a3c8 T Lelcscan_Set_Enable
a800a420 T Lelcscan_Init
a800a44c T LLconfig_LM_Standby_Low_Power_Timeout
a800a4ac T lelc_sleep_init
a800a4e4 T _Send_Ll_Terminate_Ind
a800a4f8 T _Send_Ll_Unknown_Rsp
a800a50c T _Send_Ll_Reject_Ind_Ext
a800a52c T _Send_Ll_Reject_Ind
a800a548 T _Recv_Ll_Ping_Rsp
a800a54c T _Recv_Ll_Len_Rsp
a800a550 T _Recv_Ll_Len_Req
a800a560 T _Recv_Ll_Pause_Enc_Rsp
a800a590 T _Recv_Ll_Pause_Enc_Req
a800a5c0 T _Recv_Ll_Ping_Req
a800a5e8 T _Recv_Ll_Reject_Ind
a800a618 T _Recv_Ll_Reject_Ind_Ext
a800a680 T _Recv_Ll_Connection_Param_Rsp
a800a6b4 T _Recv_Ll_Connection_Param_Req
a800a768 T _Recv_Ll_Slave_Feature_Req
a800a7a8 T _Recv_Ll_Feature_Req
a800a7f0 T _Recv_Ll_Version_Ind
a800a858 T _Recv_Ll_Feature_Rsp
a800a87c T _Recv_Ll_Unknown_Rsp
a800a8a4 T _Recv_Ll_Start_Enc_Rsp
a800a8d4 T _Recv_Ll_Start_Enc_Req
a800a918 T _Recv_Ll_Enc_Rsp
a800a998 T _Recv_Ll_Enc_Req
a800aa54 T _Recv_Ll_Terminate_Ind
a800aa64 T _Recv_Ll_Channel_Map_Req
a800aab8 T _Recv_Ll_Connection_Update_Req
a800ab54 T LLdisp_Clear_Operation_Pending_Timer
a800abdc T LLdisp_Ll_Command_Dispatcher
a800ac58 T LL_Whitelist_Init
a800aca4 T LL_Whitelist_Is_Empty
a800acb4 T LL_Whitelist_Clear
a800acf0 T LL_Whitelist_Remove
a800ad70 T LL_Whitelist_Insert
a800add8 T LLlink_Directly_Copy_Update_Param
a800ae14 T LLlink_Read_Channel_Map
a800ae1c T LLlink_Write_Authentication_Payload_Timeout
a800ae48 T LLlink_Read_Authentication_Payload_Timeout
a800ae50 T LLlink_Preapre_Receive_Conn_HCI_Param
a800af04 T LLlink_Prepare_Receive_Conn_LL_Param
a800b038 T LLlink_Check_Conn_Remote_Param_Anchor_Point
a800b088 T LLlink_Prepare_Send_Conn_Update
a800b0b4 T LLlink_Get_Conn_Time_Delta_Interval
a800b128 T LLlink_Disconnect
a800b148 T LLlink_Read_Remote_Feature
a800b178 T LLlink_Read_Remote_Version
a800b18c T LLlink_Remote_Conn_Param_Request_Reply
a800b224 T LLlink_Connect_Update
a800b2fc T LLlink_Remote_Conn_Param_Request_Negtive_Reply
a800b318 T LLlink_Remote_Connection_Parameter_Request_Event
a800b350 T LLlink_Long_Term_Key_Request_Event
a800b37c T LLlink_Detach_Link
a800b38c T LLsec_Reset_TxRx_Pkt_Cnt
a800b3a4 T LLsec_Long_Term_key_Negative_Reply
a800b3c0 T LLsec_Start_Encryption
a800b458 T LLaes_Simple_Cipher
a800b4ac T LLsec_Simple_Encrypt
a800b4ec T LLsec_Ccm_Init
a800b544 T LLsec_Set_Long_Term_Key
a800b5a0 T LLutils_Array_Reverse
a800b5c0 T LLutils_Set_Uint32
a800b5d4 T LMaclctr_Init_buff
a800b5e8 T LMaclctr_Initialise
a800b604 T LMaclctr_Find_ACL_Handle
a800b63c T LMaclctr_Find_Bd_Addr
a800b690 T LMaclctr_Free_Link
a800b770 T LMaclctr_Alloc_Link
a800b804 T LMconnection_LM_Recent_Contact_Timeout
a800b810 T LMch_Enable_L2CAP_Traffic
a800b824 T LMch_Disable_L2CAP_Traffic
a800b830 T LMconnection_LMP_Packet_Type_Table_Accepted_Ack
a800b854 T LMconnection_LMP_Accepted_Ext_Packet_Type_Table
a800b8d0 T LMconnection_Local_Setup_Complete
a800b8ec T LMconnection_LMP_Accepted_Ext_eSCO_Link_Req
a800b908 T LMconnection_LMP_Switch_Link_Timeout
a800b94c T LMconnection_LMP_Accepted_Ext_Packet_Type_Table_To
a800b95c T LMconnection_LMP_Packet_Type_Table_Req
a800ba28 T _Send_LMP_Packet_Type_Table_Req
a800ba58 T LMconnection_LM_Change_Packet_Type_Table
a800bac4 T _Send_LMP_Remove_eSCO_Link_Req
a800baf0 T _Send_LMP_SCO_Link_Req
a800bb30 T _Accept_SCO_Link
a800bb54 T _Send_LMP_Remove_SCO_Link_Req
a800bb88 T LMconnection_Send_LMP_Detach
a800bbc8 T LMconnection_LM_Encrypt_Complete
a800bbfc T LMconnection_LM_Disconnect
a800bc40 T LMconnection_LMP_Name_Req
a800bce8 T _Send_LMP_Name_Req
a800bd08 T _Send_LMP_Features_Res_Ext
a800bd88 T LMconnection_LMP_Features_Req_Ext
a800bdb4 T _Send_LMP_Features_Req_Ext
a800be34 T LMconnection_LM_Read_Remote_Extended_Features
a800be58 T _Send_HC_Synchronous_Connection_Changed_Event
a800be94 T _Send_HC_Synchronous_Connection_Complete_Event
a800bed4 T _Send_HC_Remote_Extended_Features_Complete_Event
a800bf3c T _Send_HC_Remote_Features_Complete_Event
a800bf60 T LMch_Send_HC_Role_Change_Event
a800bfa4 T _Send_HC_Connection_Packet_Type_Changed_Event_SCO
a800bfc4 T _Send_HC_Connection_Request
a800c024 T _Send_HC_Connection_Complete_Event_SCO
a800c0f0 T LMconnection_LMP_SCO_Accepted_Ack
a800c140 T LMconnection_Start_Change_eSCO_Connection
a800c198 T LMch_Resume_Encryption_After_Switch
a800c1c0 T LMconnection_LM_Disconnect_SCO
a800c264 T _Send_HC_Connection_Complete_Event_ACL
a800c2d0 T LMconnection_LM_Switch_Role_Complete
a800c340 T LMconnection_LM_Page_Complete
a800c380 T _Send_HC_Remote_Name_Request_Complete_Event
a800c41c T LMconnection_LMP_Name_Res
a800c4e0 T _Remote_Name_Request_Timeout
a800c4f0 T _Send_HC_Disconnection_Complete
a800c5a8 T _Send_HC_Read_Remote_Name_Cancel_Command_Complete_Event
a800c5d0 T _Send_HC_Create_Connection_Cancel_Command_Complete_Event
a800c5f8 T LMch_Send_LMP_eSCO_Link_Req
a800c6c8 T LMconnection_LMP_Detach_Ack
a800c70c T LMconnection_LMP_Detach
a800c7b0 T _Send_LMP_Connection_PDU
a800c8c0 T LMconnection_LMP_Features_Res_Ext
a800c918 T LMconnection_LM_Read_Remote_Supported_Features
a800c93c T LMconnection_Get_eSCO_Link_Req_Context
a800c97c T LMconnection_LMP_Remove_eSCO_Link_Req
a800c9b8 T LMconnection_LMP_Remove_eSCO_Accepted_Ext_Ack
a800c9f8 T LMconnection_LMP_Remove_SCO_Link_Req
a800ca4c T LMconnection_LMP_Switch_Req
a800cb98 T LMconnection_LM_Page_Complete_NO_ERROR
a800cc38 T LMconnection_LMP_Switch_Timeout
a800cc54 T LMconnection_LM_Page_Complete_Timeout
a800cca0 T LMconnection_Disconnect_Acl
a800ce34 T LMconnection_Detach_Timeout
a800ce4c T LMconnection_LM_Disconnect_Inf
a800ce68 T LMconnection_LM_Incoming_Link_Inf
a800cf14 T LMconnection_Finalise_Connection_Setup
a800cffc T LMconnection_Local_Setup_Complete2
a800d054 T LMconnection_LMP_Features_Res
a800d100 T LMconnection_LMP_Features_Req
a800d158 T LMconnection_LMP_Setup_Complete
a800d1a4 T LMconnection_LM_Change_SCO_Packet_Type
a800d1e4 T LMconnection_Switch_Complete_Success
a800d2f8 T LMconnection_Handle_Incoming_LM_Connection_Request
a800d3a4 T LMconnection_LMP_Host_Connection_Req
a800d3c0 T LMconnection_Validate_SCO_Admission
a800d468 T LMconnection_LMP_SCO_Link_Req
a800d690 T LMconnection_LM_Add_SCO_Connection
a800d7c0 T _Finalise_Negotiate_Synchronous
a800d890 T _Negotiate_Synchronous_Connection
a800d9b0 T LMconnection_LM_Accept_eSCO_Connection_Request
a800da70 T LMconnection_LM_AutoAccept_Default_eSCO_Link
a800daf4 T LMconnection_Start_New_eSCO_Connection
a800db98 T LMconnection_LMP_eSCO_Link_Req
a800dc4c T LMconnection_Cleanup_Reject_Synchronous_Connection_Request
a800dc84 T LMconnection_LMP_Accepted_Ext_eSCO_Link_Req_Timeout
a800dca0 T LMconnection_LMP_Not_Accepted_Ext_eSCO_Link_Req
a800dcc0 T LMconnection_LMP_Not_Accepted
a800de44 T LMconnection_LMP_Accepted
a800df78 T LMconnection_LMP_eSCO_Accepted_Ack
a800df9c T LMconnection_LM_Setup_Synchronous_Connection
a800e1d0 T LMconnection_Switch_Complete_Failure
a800e240 T LMconnection_LM_Switch_Role
a800e340 T LMconnection_LM_Auth_Complete
a800e380 T LMconnection_LM_Connection_Accept
a800e468 T LMconnection_LM_Connection_Reject
a800e4ec T LMconnection_LM_Accept_Synchronous_Connection_Request
a800e67c T LMconnection_LM_Reject_Synchronous_Connection_Request
a800e740 T LMconnection_Connection_Timeout
a800e754 T LMconnection_LM_Disconnect_Req
a800e7fc T LMconnection_LM_Read_Remote_Name_Cancel
a800e87c T LMconnection_LM_Connection_Cancel
a800e904 T _LMconnection_Create_ACL_Connection
a800e9e4 T _LMconnection_Validate_ACL_Admission
a800eab0 T LMconnection_LM_Read_Remote_Name
a800eb44 T LMconnection_LM_Connection_Req
a800eb70 T LMconnection_Initialise
a800ebac T LMdisp_LMP_Not_Accepted_Common
a800ec18 T LMdisp_LMP_Not_Accepted_Ext
a800ec28 T LMdisp_LMP_Not_Accepted
a800ec38 T LMdisp_LMP_Unsupported_Command
a800ec3c T _LMdisp_Dispatch_Extended_Opcode
a800ec90 T _LMdisp_Clear_Any_Associated_Message_Timer
a800ed3c T _LMdisp_LMP_Encapsulated_Finish
a800ed68 T _LMdisp_LMP_Encapsulated_Accept
a800ed8c T _LMdisp_Encode_Encapsulated_Accepted_PDU
a800edac T LMdisp_LMP_Encapsulated_Header
a800ede8 T LMdisp_LMP_Encapsulated_Payload
a800ee5c T LMdisp_LMP_Accepted_Common
a800eec4 T LMdisp_LMP_Accepted_Ext
a800eed4 T LMdisp_LMP_Accepted
a800eee4 T LMdisp_LMP_Command_Dispatcher
a800efe8 T LMfltr_Initialise
a800f02c T LMfltr_Inquiry_Filter_Check
a800f0a0 T LMfltr_Connection_Filter_Check
a800f12c T LMfltr_LM_Set_Filter
a800f228 T LMconfig_Change_Default_Pkt_Type
a800f234 T LMconfig_Get_Default_Pkt_Type
a800f240 T LMconfig_LM_Change_Local_Name
a800f284 T LMconfig_LM_Read_Local_Name
a800f294 T LMconfig_LM_Clear_Device_State
a800f2a4 T LMconfig_LM_Standby_Low_Power_Timeout
a800f320 T LMconfig_LMP_Not_Accepted
a800f354 T LMconfig_LMP_Version_Res
a800f398 T LMconfig_LMP_Version_Req
a800f3d8 T LMconfig_LM_Read_Remote_Version
a800f41c T LMconfig_Initialise
a800f528 T LM_Encode_Msg_Timeout
a800f578 T LM_Encode_LMP_PDU
a800f77c T LM_Encode_Encapsulated_Payload
a800f7d0 T LM_Encode_Encapsulated_PDU
a800f818 T LM_Encode_LMP_Not_Accepted_Ext_PDU
a800f848 T LM_Encode_LMP_Not_Accepted_PDU
a800f86c T LM_Encode_LMP_Accepted_Ext_PDU
a800f89c T LM_Encode_LMP_Accepted_PDU
a800f8bc T LM_Initialise
a800f91c T LMinq_Get_Inquiry_Mode
a800f928 T LMinq_Set_Inquiry_Result_Mode
a800f934 T _Get_Interval_Rand
a800f964 T _Send_LM_Inquiry_Result_Event
a800f998 T LMinq_Inquiry_Result_To
a800f9bc T _Send_LM_Inquiry_Complete_Event
a800f9dc T LMinq_Inquiry_Event_Filter
a800fa48 T LMinq_Inquiry_Cancel
a800fa6c T LMinq_Period_Interval_Timeout
a800fb20 T LMinq_Exit_Periodic_Inquiry_Mode
a800fb58 T LMinq_Inquiry_Complete_Success
a800fbf4 T LMinq_Inquiry_Complete
a800fc18 T LMinq_Inquiry_Result
a800fdb4 T LMinq_Inquiry_Start
a800fe60 T LMinq_Periodic_Inquiry
a800fee0 T LMinq_Initialise
a800ff18 T LMlc_LMP_Max_Power
a800ff24 T LMlc_LMP_Min_Power
a800ff30 T LMlc_LMP_Power_Control_Res
a800ff58 T LMlc_LMP_Page_Mode_Req
a800ff5c T LMlc_LMP_Page_Scan_Mode_Req
a800ff60 T _Send_UL_Read_Clock_Offset_Event
a800ff80 T LMlc_LMP_Not_Accepted
a800fffc T LMlc_LMP_Timing_Accuracy_Res
a8010038 T LMlc_LMP_Test_Control
a8010088 T LMlc_LMP_Test_Activate
a80100e4 T LMlc_LMP_Timing_Accuracy_Req
a8010138 T LMlc_LM_Power_Control_Res
a8010168 T LMlc_LM_Power_Control_Req
a80101a4 T LMlc_LM_Timing_Accuracy_Req
a80101ec T LMlc_LM_Dec_Peer_Power
a8010240 T LMlc_LM_Inc_Peer_Power
a8010294 T LMlc_LMP_Clock_Offset_Res
a80102b8 T LMlc_LMP_Slot_Offset
a80102d8 T LMlc_LMP_Clock_Offset_Req
a8010324 T LMlc_LM_Clock_Offset_Req
a801037c T LMlc_LMP_Incr_Power_Req
a80103bc T LMlc_LMP_Power_Control_Req
a801040c T LMlc_LMP_Decr_Power_Req
a8010448 T LMlc_LM_Read_Transmit_Power_Level
a80104a0 T LMkeydb_Initialise
a80104c4 T _Set_DB_Entry_Link_Key
a8010500 T _DB_Delete_Link_Key
a8010550 T LMkeydb_Read_Link_Key
a80105b0 T _Send_HC_Return_Link_Key_Event
a80105ec T _DB_Read_All_Keys
a8010630 T LMkeydb_LM_Read_Stored_Link_Key
a8010684 T LMkeydb_Write_Link_Key
a8010710 T LMkeydb_LM_Write_Stored_Link_Key
a8010730 T LMkeydb_LM_Delete_Stored_Link_Key
a80107b4 T LMpol_HCI_Enhanced_Flush
a80107b8 T LMpol_Max_Slots_Allowed
a8010818 T _LMpol_Initialise_eSCO_Window_Slave_Side
a801086c T _LMpol_Initialise_eSCO_Window
a80108f0 T _LMpol_High_Priority_ACL_Data_To_Send
a8010978 T _LMpol_Retransmission_Allowed
a80109dc T LMpol_Adjust_Peer_Packet_Type
a8010a08 T LMpol_Adjust_ACL_Packet_Types_On_Link
a8010abc T LMpol_Adjust_ACL_Packet_Types_On_All_Links
a8010b04 T LMpol_Ack_Last_Tx_Packet
a8010b34 T LMpol_Init_SCO
a8010bc0 T LMpol_Filter_Multislot_To_Bandwidth
a8010bfc T _LMpol_Get_Master_Broadcast_Tx
a8010e94 T LMpol_Get_Next_SCO_Tx_Activity
a8011190 T LMpol_Device_Activity
a80113d8 T LMpol_Decr_Links_In_Low_Power
a8011458 T _LMpol_Get_Link_Tx_Activity
a80114f8 T lm_edr_error_check
a8011574 T LMpol_Get_Next_Slave_Tx_Activity
a8011664 T LMpol_Sleep
a8011748 T _LMpol_Get_Next_Slave_Sniff_Activity
a8011a24 T LMpol_Get_Next_Slave_Rx_Activity
a8011a7c T _LMpol_Get_Next_Master_Sniff_Activity
a8011c20 T _LMpol_Update_Sniff_Parameters
a8011c58 T LMpol_Is_SCO_Next_Activity
a801207c T LMpol_Get_Next_Master_Tx_Activity
a80122f0 T LMpol_Initialise
a801238c T LMpolicy_LM_Role_Discovery
a8012398 T LMpolicy_LMP_Enable_L2cap_Traffic
a80123a4 T LMpolicy_LM_Get_Min_Sniff_Interval
a8012428 T LMpolicy_Derive_Sniff_Parameters
a80125a4 T _Send_LMP_Sniff_Req
a8012600 T LMpolicy_LM_Encode_Sniff_Subrating_PDU
a8012644 T LMpolicy_LM_Sniff_Subrating_Calc
a80126c4 T LMpolicy_LM_Sniff_Subrating_Req
a80126f8 T LMpolicy_LM_Sniff_Subrating
a8012728 T LMpolicy_Extract_Sniff_Parameters
a801289c T LMpolicy_LM_Sniff_Mode
a80129d4 T LMpolicy_LMP_Adjust_ACL_Packet_Types
a80129e4 T LMpolicy_LMP_Sniff_Subrating_Res_Ack
a8012a68 T LMpolicy_Extract_Sniff_Subrating_Parameters
a8012aac T LMpolicy_LMP_Sniff_Subrating_Res
a8012ad4 T LMpolicy_LMP_Sniff_Subrating_Req
a8012b08 T LMpolicy_LM_Exit_Sniff_Mode
a8012b80 T _Send_LMP_Hold
a8012c18 T _Send_HC_Mode_Change_Event
a8012c9c T LMpolicy_Enter_Sniff_Mode
a8012d34 T LMpolicy_LM_Return_From_Sniff
a8012da8 T LMpolicy_LM_Exit_Master_From_Sniff
a8012dd0 T LMpolicy_LMP_Unsniff_Req
a8012e34 T LMpolicy_LMP_Accepted
a8012e68 T LMpolicy_LMP_Sniff_Req
a8012fac T LMpolicy_LMP_Not_Accepted
a8013094 T LMpolicy_Enter_Hold_Mode
a80130f0 T LMpolicy_LMP_Hold
a801320c T LMpolicy_LM_Hold_Mode
a80132c8 T LMpolicy_LMP_Hold_Req
a8013448 T LMpolicy_Execute_Hold
a8013584 T LMpolicy_LM_Return_From_Hold
a8013600 T LMlpctrl_Power_Req_Ack
a8013620 T LMlpctrl_Incr_Power_Req_Ack
a8013660 T LMlpctrl_Decr_Power_Req_Ack
a80136a0 T LMlpctrl_Scan_All_Links_Request_Peer_Power_If_Reqd
a8013800 T LMqos_Initialise
a8013804 T LMqos_Update_Allowed_Packets
a801389c T LMqos_LMP_Preferred_Rate
a80139c4 T LMqos_LMP_Auto_Rate
a80139ec T LMqos_LM_Read_Supervision_Timeout
a80139fc T LMqos_Max_Packet_Size
a8013a98 T LMqos_Get_Communication_Interval
a8013ba0 T LMqos_SCO_Quality_Timeout
a8013be4 T _Send_HC_Link_Supervision_Timeout_Changed_Event
a8013c00 T _Send_HC_Flow_Spec_Complete_Event
a8013c58 T _Send_HC_QoS_Setup_Complete_Event
a8013c80 T _Send_HC_Max_Slots_Change_Event
a8013c9c T LMqos_Send_HC_Packet_Type_Changed_Event
a8013cd8 T LMqos_LMP_Not_Accepted
a8013d18 T LMqos_Check_Link_Flow_Specification
a8013e08 T LMqos_Check_Link_QoS
a8013ee8 T LMqos_Update_Link_Flow_Spec
a801401c T LMqos_Update_Link_QoS
a8014144 T LMqos_LMP_Accepted
a8014244 T LMqos_LMP_Max_Slot
a801429c T LMqos_LMP_Quality_of_Service
a8014310 T LMqos_set_quality_para
a8014378 T LMqos_LMP_Quality_of_Service_Req
a8014414 T LMqos_LMP_Supervision_Timeout
a8014498 T LMqos_LMP_Supervision_Timeout_Ack
a80144f0 T LMqos_LM_Write_Supervision_Timeout
a80145b4 T LMqos_Adjust_Supervision_Timeout_On_Link
a8014610 T LMqos_Send_LMP_Preferred_Rate
a8014660 T LMqos_LM_Max_Slot_Req
a8014694 T LMqos_LM_QOS_Setup
a80146e8 T LMqos_LM_Flow_Specification
a80147e0 T LMqos_LMP_Max_Slot_Req
a8014818 T LMqos_Channel_Quality_Timeout
a80149fc T LMqos_LM_Change_Packet_Type
a8014ca0 T LMscan_LM_Read_Supported_IAC
a8014cd4 T LMscan_Read_Scan_Activity
a8014d04 T LMscan_Write_Inquiry_Scan_Type
a8014d18 T LMscan_Write_Page_Scan_Type
a8014d2c T LMscan_Sleep
a8014e24 T LMscan_Inquiry_Scan_Complete
a8014e70 T LMscan_Page_Scan_Complete
a8014ed8 T LMscan_Update_SR_Mode
a8014f14 T LMscan_Page_Scan_Incoming
a8014fac T LMscan_Inquiry_Scan_Start
a80150cc T LMscan_Page_Scan_Start
a80151ec T LMscan_Write_Scan_Enable
a8015250 T LMscan_Write_Scan_Activity
a8015310 T LMscan_LM_Write_Supported_IAC
a8015358 T LMscan_Initialise
a8015414 T LMscoctr_Initialise
a8015488 T LMscoctr_Get_Number_SCO_Connections
a8015494 T LMscoctr_Get_Number_PCM_Connections
a80154ac T LMscoctr_Assign_SCO_Parameters
a80154cc T LMscoctr_Extract_SCO_Parameters_From_PDU
a8015528 T LMscoctr_Map_AirMode_LMP2HCI
a8015544 T LMscoctr_Map_AirMode_HCI2LMP
a8015560 T LMscoctr_Is_LM_Air_Mode_Supported
a80155b4 T LMscoctr_Get_Active_LM_SYN_Window
a80155fc T LMscoctr_Is_All_Bandwidth_Used_By_SCO
a8015628 T LMscoctr_Is_All_Bandwidth_Used_By_SYN
a80156a0 T LMscoctr_Find_SCO_By_Device_Index
a80156bc T LMscoctr_Find_SCO_By_Connection_Handle
a80156d8 T LMscoctr_Find_SCO_By_SCO_Handle
a80156fc T LMscoctr_Derive_LM_SCO_Packet_Type
a8015728 T LMscoctr_Get_SCO_Transitioning_Ref
a8015740 T LMscoctr_Find_SCO_Under_Negotiation
a801577c T LMscoctr_Allocate_Negotation_SCO_Link
a8015808 T LMscoctr_Free_Negotiation_SCO_Link
a8015814 T LMscoctr_Convert_HCI_To_LM_SCO_Packet_Type
a8015834 T _LMscoctr_Derive_D_SCO
a8015878 T LMscoctr_Derive_SCO_Parameters
a8015914 T LMscoctr_Map_eSCO_Pkt_Type_LMP2HCI
a8015950 T LMscoctr_Extract_eSCO_Parameters_From_LMP_PDU
a8015a3c T LMscoctr_Validate_eSCO_Features
a8015ad0 T LMscoctr_Validate_Local_eSCO_Features
a8015aec T LMscoctr_Validate_Remote_eSCO_Features
a8015b0c T LMscoctr_IsValid_eSCO_Packet_Type
a8015b38 T LMscoctr_Initial_Negotiate_Setting
a8015b58 T LMscoctr_Adjust_Negotiate_Setting
a8015be8 T _LMscoctr_SetDEscoCalculatorBit
a8015c08 T _LMscoctr_TestDEscoCalculatorBit
a8015c28 T LMscoctr_Derive_D_eSCO_AtLeast
a8015cf8 T LMscoctr_Get_Next_LMP_Parameter_Set
a8016034 T LMscoctr_Check_eSCO_Parameter
a80161c0 T LMscoctr_Get_Next_D_eSCO
a80161ec T LMscoctr_Is_Bandwidth_Available_For_SCO_Packet_Types
a80162bc T LMscoctr_Derive_Tx_Dequeue_Length
a8016310 T LMscoctr_Set_D_eSCO_and_Timing_Flag
a801635c T LMscoctr_Validate_SYN_Piconet
a8016398 T LMscoctr_Validate_Host_eSCO_Parameters
a8016434 T LMscoctr_IsValid_eSCO_Packet_Length
a80164d4 T LMscoctr_RangeCheck_Peer_eSCO_Parameters
a8016580 T LMscoctr_Validate_Peer_eSCO_Parameters
a80165d0 T LMscoctr_Commit_to_New_Synchronous_Parameters
a80166f0 T LMscoctr_Accept_And_Free_Negotiated_SCO_Link
a8016754 T LMscoctr_Init_D_eSCO_Bitmap
a80167f8 T LMscoctr_Free
a80168cc T LMscoctr_Alloc
a8016a08 T LMsec_core_Array_Xor
a8016a34 T _AgeRepeatAttemptsList
a8016aa4 T LMsec_core_Get_Broadcast_Key_Length
a8016b68 T LMsec_core_Is_Broadcast_Key_Length_Possible
a8016bac T LMsec_core_Clean_On_Detach
a8016bd0 T LMsec_core_Simple_Pairing_Complete_2
a8016c58 T LMsec_core_Start_SSP_Stage2_2
a8016cbc T LMsec_core_Start_SSP_Stage2
a8016d04 T LMsec_core_Init_UnitKey_Setup
a8016d40 T LMsec_core_Start_Simple_Pairing
a8016f2c T LMsec_core_TimeoutHandler
a8017030 T LMsec_core_Pause_Encryption_Complete
a80170a0 T LMsec_core_Set_Encryption_Complete
a8017120 T LMsec_core_Set_Encryption
a801718c T LMsec_core_RecordAuthSuccess
a80171e8 T LMsec_core_RecordAuthFailure
a8017298 T LMsec_core_Change_To_Semi_Permanent_Key
a80172d4 T LMsec_core_PeerData_Tx_Go_Callback
a801731c T LMsec_core_PeerData_Tx_Stop_Callback
a801736c T LMsec_core_Stop_Encryption_Ack
a801738c T LMsec_core_Enable_Rx_Encryption
a80173c4 T LMsec_core_Init_Encryption
a801743c T LMsec_core_Initialise
a80174cc T LMsec_core_Init_CombKey_Setup
a8017530 T LMsec_core_Init_LinkKey_Negotiation
a801756c T LMsec_core_Get_Link_Key
a80175d0 T LMsec_core_Auth_Response
a8017630 T LMsec_core_Auth_Challenge
a80176bc T LMsec_core_Change_To_Temporary_Key
a8017734 T LMsec_core_Auth_Complete
a80178c4 T LMsec_core_Simple_Pairing_Complete
a8017938 T LMsec_core_Auth_Allowed
a8017980 T LMsec_core_Init_Authentication
a8017a44 T LM_SecEng_Generate_Local_Key
a8017a48 T LM_SecEng_Wait_Local_Key
a8017c08 T lm_sp_n192_convert_wnaf
a8017cc0 T _Safer_Plus_Encrypt
a8017f3c T _Keyed_Hash
a801804c T LM_SecEng_Generate_Key_E3
a8018064 T LM_SecEng_Authenticate_E1
a80180d0 T LM_SecEng_Generate_Key_E22
a8018188 T LM_SecEng_Generate_Key_E21
a80181fc T _HMAC_SHA_256_Finish
a8018304 T _HMAC_SHA_256_Init
a80183cc T _Reg_To_Byte_Array
a8018404 T LM_SecEng_Generate_Check
a8018490 T LM_SecEng_Generate_Link_Key
a8018518 T LM_SecEng_Generate_Commitment
a8018570 T LM_SecEng_Get_DHKey
a80185a4 T LM_SecEng_Set_Local_Key
a8018900 T lm_sp_p192_point_to_inf
a8018958 T lm_sp_p192_invert
a8018a04 T lm_sp_n_one
a8018adc T LM_SecEng_Set_Peer_Key
a80191e4 T lm_sp_p192_dbl
a80193bc T lm_sp_p192_add
a8019718 T lm_sp_pre_compute_points
a801998c T lm_sp_p192_point_jacobian_to_affine
a8019a2c T lm_dhkey_compare
a8019b40 T lm_sp_p192_points_jacobian_to_affine
a8019c90 T lm_dhkey_calc_init
a8019d20 T LM_Start_Calc_DHK
a8019d98 T LM_SecEng_Generate_DHKey
a8019e00 T _Update_Link_Key
a8019e30 T _Stop_Encryption
a8019e4c T _Generate_Encryption_Key
a8019ef0 T _Start_Encryption
a8019f44 T _Complete_CombKey_Setup
a8019fb4 T LMsec_peer_LMP_OOB_Failed
a8019fc8 T LMsec_peer_LMP_Passkey_Entry_Failed
a8019fdc T LMsec_peer_LMP_Number_Comparison_Failed
a8019ff0 T LMsec_peer_LMP_Keypress_Notification
a801a004 T LMsec_peer_LMP_IO_capability_Res
a801a078 T LMsec_peer_LMP_PublicKey
a801a130 T LMsec_peer_Send_LMP_Not_Accepted
a801a170 T LMsec_peer_Send_LMP_Message
a801a200 T LMsec_peer_LMP_OOB_Check
a801a2a4 T LMsec_peer_LMP_Simple_Pairing_Confirm
a801a374 T LMsec_peer_LMP_IO_capability_Req
a801a454 T LMsec_peer_LMP_Resume_Encryption_Req
a801a488 T LMsec_peer_Send_LMP_Accepted
a801a4bc T LMsec_peer_LMP_DHKey_Check_2
a801a62c T LMsec_peer_LMP_DHKey_Check
a801a6e4 T LMsec_peer_LMP_Simple_Pairing_Number
a801a884 T LMsec_peer_Send_LMP_Encryption_Key_Size_Mask_Res
a801a8ac T LMsec_peer_LMP_Encryption_Key_Size_Mask_Req
a801a8c4 T LMsec_peer_Send_LMP_Encryption_Key_Size_Mask_Req
a801a8e8 T LMsec_peer_LMP_Encryption_Key_Size_Mask_Res
a801a90c T LMsec_peer_LMP_Temp_Key
a801a974 T LMsec_peer_LMP_Use_Semi_Permanent_Key
a801a9d0 T LMsec_peer_LMP_Unit_Key
a801aa90 T LMsec_peer_LMP_Comb_Key
a801abe0 T LMsec_peer_LMP_Temp_Rand
a801ac48 T LMsec_peer_LMP_Pause_Encryption_Req
a801ac9c T LMsec_peer_LMP_Stop_Encryption_Req
a801ad44 T LMsec_peer_LMP_Start_Encryption_Req
a801ae08 T LMsec_peer_LMP_Not_Accepted
a801b0a4 T LMsec_peer_LMP_Encryption_Mode_Req
a801b1f0 T LMsec_peer_LMP_Encryption_Key_Size_Req
a801b2a0 T LMsec_peer_LMP_Sres
a801b3fc T LMsec_peer_LMP_In_Rand
a801b654 T LMsec_peer_LMP_Au_Rand
a801b7e4 T LMsec_peer_LMP_Accepted
a801badc T LMsec_upper_Send_HCI_Event
a801bbb8 T LMsec_upper_Send_Encryption_Change_Event
a801bbcc T LMsec_upper_LM_Read_Local_OOB_Data
a801bc10 T LMsec_upper_LM_Write_Simple_Pairing_Debug_Mode
a801bc28 T LMsec_upper_LM_Send_Keypress_Notification
a801bc68 T LMsec_upper_LM_User_Passkey_Request_Timeout
a801bc98 T LMsec_upper_LM_Remote_OOB_Data_Request_Timeout
a801bccc T LMsec_upper_LM_User_Confirm_Request_Timeout
a801bcfc T LMsec_upper_LM_Remote_OOB_Data_Request_Negative_Reply
a801bd60 T LMsec_upper_LM_IO_Capability_Request_Reply
a801be00 T LMsec_upper_LM_User_Passkey_Request_Negative_Reply
a801be98 T LMsec_upper_LM_User_Confirm_Request_Negative_Reply
a801bf34 T LMsec_upper_LM_IO_Capability_Request_Timeout
a801bf70 T LMsec_upper_LM_IO_Capability_Request_Negative_Reply
a801bfe4 T LMsec_upper_LM_Link_Key_Request_Timeout
a801c050 T LMsec_upper_LM_Link_Key_Request_Negative_Reply
a801c140 T LMsec_upper_LM_User_Passkey_Request_Reply
a801c230 T LMsec_upper_LM_Remote_OOB_Data_Request_Reply
a801c2ac T LMsec_upper_LM_User_Confirm_Request_Reply
a801c344 T LMsec_upper_LM_Refresh_Encryption_Key
a801c388 T LMsec_upper_LM_Set_Connection_Encryption
a801c40c T LMsec_upper_LM_Pin_Code_Request_Reply
a801c56c T LMsec_upper_LM_Pin_Code_Request_Timeout
a801c5bc T LMsec_upper_LM_Pin_Code_Request_Negative_Reply
a801c644 T LMsec_upper_LM_Master_Link_Key
a801c778 T LMsec_upper_LM_Link_Key_Request_Reply
a801c934 T LMsec_upper_LM_Create_New_Unit_Key
a801c974 T LMsec_upper_LM_Change_Connection_Link_Key
a801ca34 T LMsec_upper_LM_Authentication_Requested
a801cab8 T LMtmr_Initialise
a801cb00 T LMtmr_Reset_Timer
a801cb14 T LMtmr_Set_Timer
a801cb2c T SYStmr_Handle_Expired_Timers
a801cbd0 T SYStmr_Handle_Expired_Timers_All
a801cbe8 T LMutils_Set_Bd_Addr
a801cbf8 T LMutils_Bd_Addr_Match
a801cc48 T LMutils_Array_Copy
a801cc60 T LMutils_Get_Uint16
a801cc70 T LMutils_Get_Uint24
a801cc84 T LMutils_Get_Uint32
a801cca0 T LMutils_Set_Uint16
a801ccb0 T LSLCacc_Initialise
a801cd14 T Lslcacc_build_Tx_Test_continues
a801ce10 T BT_Start_rx_test_process
a801cf84 T Lslcacc_build_Tx_Test_burst_Start
a801d0d0 T BT_start_rx_test_end2
a801d1c8 T bt_rx_Test_process_packet2
a801d31c T bt_rx_Test_receive_hdr2
a801d42c T LSLCacc_Exit_Test
a801d4f4 T lslc_acc_bbtest_pka2
a801d5b8 T bt_Assign_Frequency_Kernel
a801d5ec T LSLCafh_Process_Baseband_Ack
a801d608 T LSLCafh_LM_Read_AFH_Channel_Map
a801d644 T LSLCafh_Count_1_Bits
a801d670 T LSLCafh_set_AFH
a801d764 T LSLCafh_Initialise
a801d80c T LSLCass_Initialise_Device_Channel_Assessment
a801d878 T LSLCass_Disable_Channel
a801db9c T LSLCass_Process_No_Rx_Packet
a801dc9c T LSLCass_Fade_Adjacent_Channels
a801dd34 T LSLCass_Process_Rx_RSSI_Channel
a801de00 T LSLCass_Handle_Assessments
a801de3c T LSLCcls_Build_Channel_Classification
a801de9c T LSLCcls_Build_Channel_Map
a801df90 T LSLCcls_Record_Device_Channel_Map
a801dfa8 T LSLCcls_Record_Slave_Channel_Classification
a801dfcc T LSLCcls_Initialise_Slave_Channel_Classification
a801dff0 T LSLCcls_Initialise
a801e01c T LSLCclk_Initialise
a801e020 T LSLCfreq_Initialise
a801e030 T LSLChop_Initialise
a801e088 T _LSLChop_Execute_HSE_Non_Connection
a801e14c T LSLChop_Build_Frequency_Table
a801e1d0 T _LSLChop_Execute_HSE_Reduced
a801e1f0 T _LSLChop_Execute_HSE_Single_Connection
a801e204 T _LSLChop_Execute_HSE_Connection_23
a801e358 T LSLChop_Execute_79_Hop_Kernel_Connection_Summation
a801e4a0 T _LSLChop_Execute_HSE_Connection_79
a801e4d0 T LSLCirq_Initialise
a801e4fc T LSLCslot_Initialise
a801e53c T LSLCslot_eSCO_tx_3slot_packet_expected
a801e548 T LSLCslot_eSCO_rx_3slot_packet_expected
a801e554 T LSLCstat_Reset_Monitors
a801e570 T rdabt_mgr_get_local_feature
a801e57c T rdabt_mgr_get_dut_mode
a801e58c T MGR_GetState
a801e59c T rdabt_mgr_setState
a801e5b0 T MGR_LESetAdvIntval
a801e5d0 T rdabt_mgr_handle_common_event
a801e620 T mgr_set_advert_data
a801e668 T MGR_LESetAdvData
a801e698 T mgr_set_advert_mode
a801e828 T MGR_LESetAdvertMode
a801e84c T MGR_EnableAdv
a801e870 T mgr_write_pagescan_parameters
a801e8f4 T rdabt_manager_msg_dispatch
a801ed0c T rdabt_manager_layer_ctrl
a801eda8 T MGR_BaseBand_TestEnd
a801edbc T MGR_BaseBand_RXTest
a801edf4 T MGR_BaseBand_TXTest
a801ee28 T MGR_EnableDUT
a801ee60 T MGR_WriteLocalDeviceAddress
a801ee78 T MGR_ChangeLocalName
a801ef60 T MGR_SetConnectableMode
a801ef88 T MGR_SetDiscoverableMode
a801efb0 T MGR_WriteLocalDeviceCOD
a801efd0 T rdabt_mgr_addDeviceEntry
a801f078 T MGR_GetNextDeviceRecord
a801f0e4 T rdabt_mgr_removeDeviceByFlag
a801f188 T MGR_RemoveDeviceRecord
a801f1b8 T rdabt_mgr_find_deviceEntryByAddress
a801f220 T rdabt_mgr_return_deviceEntryByAddress
a801f23c T rdabt_shutdown_devicelist
a801f268 T rdabt_mgr_initialise_devicelist
a801f2ac T rdabt_shutdown_inquiry
a801f2b0 T rdabt_mgr_start_inquiry
a801f36c T rdabt_mgr_name_normal_request
a801f3a0 T rdabt_mgr_handle_inquiry_event
a801f6d8 T MGR_GetRemoteName
a801f724 T MGR_InquiryCancel
a801f7f8 T MGR_Inquiry
a801f848 T rdabt_init_inquiry
a801f85c T rdabt_mgr_le_get_DevEntryByHandle
a801f8a0 T rdabt_mgr_le_get_addressByHandle
a801f8d0 T rdabt_mgr_le_free_all_linklist
a801f904 T rdabt_mgr_le_get_unused_entry
a801f954 T rdabt_mgr_le_find_devEntryByAddress
a801f9a8 T rdabt_le_remote_param_request_handler
a801f9fc T rdabt_mgr_le_updateConnParameter
a801fa48 T rdabt_mgr_le_releaseACL
a801faa0 T alloc_le_acl_link
a801faf8 T rdabt_mgr_le_shutdown_devlist
a801fb1c T rdabt_mgr_le_initialise_linklist
a801fb60 T rdabt_mgr_le_initialise_devlist
a801fb98 T rdabt_mgr_le_addDevEntry
a801fbc4 T rdabt_mgr_le_return_devEntryByAddress
a801fbe0 T rdabt_mgr_le_handle_link_event
a801fee8 T rdabt_mgr_extract_eirdata
a801ff60 T rdabt_mgr_le_store_scan_entry
a801fff0 T rdabt_mgr_le_handle_scan_event
a8020034 T rdabt_init_le_scan
a8020044 T MGR_SetVoiceSetting_Config
a8020050 T rdabt_mgr_get_deviceEntryByHandle
a80200bc T rdabt_mgr_get_addressByHandle
a80200ec T alloc_acl_link
a8020190 T rdabt_mgr_updateLinkSupervisionTimeout
a8020218 T rdabt_update_sniff_timer
a80202e0 T rdabt_mgr_read_raw_rssi
a8020314 T MGR_ConnectAcceptRsp
a802035c T rdabt_mgr_updateFlushTimeout
a8020400 T MGR_ReleaseSynchronous
a8020460 T MGR_SetupSynchronous
a8020504 T rdabt_mgr_createACL
a802060c T rdabt_mgr_releaseACL
a8020680 T MGR_releaseACL
a8020698 T rdabt_link_sniff_timeout
a8020790 T rdabt_mgr_handle_HCI_evMODECHANGE
a8020858 T rdabt_mgr_handle_link_event
a8021210 T rdabt_mgr_releaseAllACL
a80212b4 T rdabt_mgr_free_all_linklist
a80212e8 T rdabt_mgr_initialise_linklist
a8021338 T MGR_RegisterServiceSecurityLevel
a8021384 T MGR_SetPairingMode
a80213f4 T rdabt_mgr_auth_retry
a8021530 T rdabt_mgr_handle_security_hciEvent
a8021c18 T MGR_OOBDataResponse
a8021c34 T rdabt_write_link_policy_handle
a8021c58 T MGR_ConfirmResponse
a8021c9c T MGR_PasskeyResponse
a8021cf0 T MGR_PINResponse
a8021d44 T MGR_LinkKeyResponse
a8021fb4 T MGR_IncomingAccessRequest
a8022010 T MGR_OutgoingAccessRequest
a802206c T MGR_InitBonding
a8022134 T rdabt_mgr_hci2bt_error
a8022150 T rdabt_mgr_copyBDAddress
a8022160 T rdabt_get_a2dp_active_device
a802218c T rdabt_get_soundbar_clk_role
a80221b4 T rdabt_a2dp_set_msg_info_and_send_start
a80221e8 T rdabt_a2dp_read_syncclk_and_start
a8022274 T rdabt_get_a2dp_device_info
a80222d0 T rdabt_a2dp_receive_spp_data
a80223b4 T rdabt_free_avrcp_device_info
a8022408 T rdabt_mode_switch_timer
a802241c T rdabt_le_addr_init
a8022474 T rdabt_active_init
a80224c0 T rdabt_change_local_name
a80224e4 T rdabt_set_visiable
a8022508 T rdabt_mode_switch
a8022538 T rdabt_common_init
a80225bc T rdabt_gatt_process_msg
a8022638 T rdabt_gatt_free
a8022658 T rdabt_gatt_init
a8022670 T rdabt_send_notification
a80226a8 T rdabt_ble_set_adv_data
a80226bc T rdabt_ble_set_visible
a80226ec T rdabt_add_ble_service
a802273c T rdabt_mgr_sco_data_ind_cb
a8022740 T rdabt_mgr_register_cnf_cb
a8022744 T rdabt_manager_msg_handle
a8022778 T rdabt_get_rssi_by_addr
a802278c T rdabt_get_remote_name_req
a80227e4 T rdabt_remove_adp_device
a8022804 T rdabt_removedevice_by_addr
a8022824 T rdabt_mgr_clean_linkkey_cb
a80228e4 T rdabt_mgr_free
a8022908 T rdabt_mgr_init
a80229c0 T rdabt_add_device
a8022a0c T rdabt_mgr_sco_disconnect_ind_cb
a8022a4c T rdabt_mgr_sco_connect_ind_cb
a8022a68 T rdabt_mgr_bonding_cnf_cb
a8022abc T rdabt_mgr_discovery_cnf_cb
a8022ad8 T rdabt_mgr_get_remote_name_cnf_cb
a8022b34 T rdabt_mgr_return_adp_info
a8022b54 T rdabt_mgr_get_rssi_cnf_cb
a8022b6c T rdabt_mgr_passkey_ind_cb
a8022b94 T rdabt_mgr_confirm_ind_cb
a8022bb8 T rdabt_mgr_oob_data_ind_cb
a8022be0 T rdabt_mgr_inquiry_cancel
a8022bfc T rdabt_mgr_discovery_ind_cb
a8022cc0 T rdabt_mgr_inquiry_device
a8022cfc T rdabt_mgr_link_key_ind_cb
a8022d38 T rdabt_mgr_pin_code_ind_cb
a8022d68 T rdabt_mgr_acl_disconnect_ind_cb
a8022df8 T rdabt_mgr_acl_connect_cnf_cb
a8022f3c T rdabt_mgr_acl_connect_ind_cb
a8023088 T rdabt_mgr_sco_disconnect
a802309c T rdabt_mgr_sco_connect
a80230b0 T rdabt_mgr_test
a80230c0 T rdabt_mgr_mode_change_ind_cb
a802316c T rdabt_send_notify
a8023170 T pMemcpy
a8023180 T RDABT_Exit_CriticalSection
a8023190 T RDABT_Enter_CriticalSection
a80231a4 T rdabt_spp_msg_handle
a80231d8 T rdabt_spp_flowctrl_ind_cb
a80231f4 T rdabt_spp_return_adp_info
a8023214 T rdabt_spp_free_buf
a8023228 T rdabt_spp_data_ind_cb
a80232e0 T rdabt_spp_disconnect
a8023304 T rdabt_adp_spp_send_data
a8023340 T rdabt_spp_connect
a802336c T rdabt_spp_register_services
a8023388 T rdabt_spp_free
a80233b4 T rdabt_spp_adp_init
a80233d4 T rdabt_spp_disconnect_cnf_cb
a8023414 T rdabt_spp_disconnect_ind_cb
a8023454 T Soundbar_Set_Master_and_Slave
a8023468 T rdabt_spp_connect_cnf_cb
a80234d0 T rdabt_spp_connect_ind_cb
a8023538 T rdabt_set_support_soundbar
a8023554 T rdabt_set_local_soundbar_volume
a8023578 T rdabt_rfcomm_check_channel_state
a802359c T rdabt_rfcomm_l2cap_inst_cmp
a80235a8 T rdabt_rfcomm_l2cap_cid_cmp
a80235b4 T rdabt_rfcomm_schan_cmp
a80235c4 T rdabt_rfcomm_remove_all_servers
a80235e8 T rdabt_rfcomm_remove_all_l2cap_inst
a802360c T rdabt_rfcomm_core_shutdown
a8023630 T rdabt_rfcomm_remove_all_server_helper
a8023644 T rdabt_rfcomm_lookup_server_inst_by_schan
a8023668 T rdabt_rfcomm_lookup_l2cap_inst_by_bd_addr
a8023690 T rdabt_rfcomm_lookup_l2cap_inst_by_cid
a80236b8 T rdabt_rfcomm_validate_and_lock_l2cap_inst_by_ptr
a80236e0 T rdabt_rfcomm_l2cap_remove_all_inst_helper
a8023708 T rdabt_rfcomm_remove_l2cap_inst
a802374c T rdabt_rfcomm_l2cap_bdaddr_cmp
a802377c T rdabt_rfcomm_add_l2cap_inst
a802379c T rdabt_rfcomm_core_init
a80237c4 T rdabt_rfcomm_l2cap_connect_ind
a8023810 T rdabt_rfcomm_msg_dispatch
a80238e4 T rdabt_rfcomm_layer_ctrl
a8023940 T rdabt_rfcomm_dlc_do_event
a802395c T rdabt_rfcomm_incoming_servicelevel_sec_callback
a8023974 T rdabt_rfcomm_dlc_incoming_sec_callback
a80239e8 T rdabt_rfcomm_ack_timeout_cb
a80242bc T rdabt_rfcomm_dlc_init
a8024320 T rdabt_rfcomm_entity_remove_all_pending_conns
a8024344 T rdabt_rfcomm_entity_shutdown
a8024360 T rdabt_rfcomm_entity_remove_all_pending_conns_helper
a802438c T rdabt_rfcomm_entity_remove_all_pending_channels_helper
a8024478 T rdabt_rfcomm_entity_rfstart_conf_cb
a80244c8 T rdabt_rfcomm_open_multiplexer
a8024504 T rdabt_rfcomm_entity_connect_port
a8024650 T rdabt_rfcomm_entity_rfstart_ind_cb
a8024678 T rdabt_rfcomm_entity_init
a80246b0 T rdabt_rfcomm_create_sabm
a8024720 T rdabt_rfcomm_create_ua
a8024790 T rdabt_rfcomm_create_dm
a8024800 T rdabt_rfcomm_create_disc
a8024870 T rdabt_rfcomm_rx_fcs
a80248c4 T rdabt_rfcomm_destroy_uih
a80248f8 T rdabt_rfcomm_create_uih_credit
a80249b8 T rdabt_rfcomm_create_uih
a8024a78 T rdabt_rfcomm_l2cap_do_event
a8024a94 T rdabt_rfcomm_l2cap_next_state
a8024a98 T rdabt_rfcomm_l2cap_dispatch_data
a8024b08 T rdabt_rfcomm_l2cap_process_data
a8024c10 T rdabt_rfcomm_l2cap_wait_dis_dlc0_timeout
a8024e94 T rdabt_rfcomm_dlc_dlci_cmp_helper
a8024ea4 T rdabt_rfcomm_free_dlc_instance
a8024eb8 T rdabt_rfcomm_remove_all_dlc_instance
a8024ee4 T rdabt_rfcomm_dlc_remove_all_helper
a8024f28 T rdabt_rfcomm_remove_dlc_instance
a8024f98 T rdabt_rfcomm_lookup_dlci_instance_and_lock
a8024fb8 T rdabt_rfcomm_lookup_dlci_instance
a8024fd8 T rdabt_rfcomm_reg_dlc_instance
a8024ffc T rdabt_rfcomm_l2cap_connect_configured_cfm_cb
a8025044 T rdabt_rfcomm_l2cap_disc_cfm_cb
a8025070 T rdabt_rfcomm_l2cap_disc_ind_cb
a80250a0 T rdabt_rfcomm_l2cap_data_ind_cb
a80250d4 T rdabt_rfcomm_l2cap_init
a8025170 T RDABT_RFCOMM_UE_Allocate_Server_Channel
a80251b8 T RDABT_RFCOMM_UE_Deallocate_Server_Channel
a80251e0 T RDABT_RFCOMM_UE_Get_Channel_State
a8025200 T RDABT_RFCOMM_UE_register_rfstart_ind_cb
a8025210 T rdabt_rfcomm_dlci0_lock_and_transmit_cmesg
a8025244 T RDABT_RFCOMM_UE_Get_L2CAP_CID_From_Multiplexer
a8025264 T RDABT_RFCOMM_UE_Parneg_Credit_Resp
a80252d0 T __rdabt_rfcomm_ue_Parneg_Credit_Req
a8025358 T RDABT_RFCOMM_UE_Parneg_Resp
a80253c4 T __rdabt_rfcomm_ue_Parneg_Req
a8025444 T RDABT_RFCOMM_UE_Get_Multiplexer_State
a802548c T RDABT_RFCOMM_UE_Linestatus_Req
a8025504 T RDABT_RFCOMM_UE_Control_Req
a8025578 T RDABT_RFCOMM_UE_Portneg_Resp
a80255e0 T RDABT_RFCOMM_UE_Data_Req
a8025638 T RDABT_RFCOMM_UE_DLC_Rel_Req
a8025680 T RDABT_RFCOMM_UE_Start_Resp
a80256e0 T RDABT_RFCOMM_UE_DLC_Estab_Req
a802575c T RDABT_RFCOMM_UE_DLC_Estab_Resp
a80257e0 T RDABT_RFCOMM_UE_Start_Req
a8025850 T RDABT_RFCOMM_UE_Register_Server
a80258e4 T rdabt_sdp_l2cap_connect_configured_cfm_cb
a802592c T rdabt_sdp_l2cap_disconnect_ind_cb
a8025954 T rdabt_sdp_l2cap_disconnect_cfm_cb
a802598c T rdabt_sdp_l2cap_data_ind_cb
a8025a58 T rdabt_sdp_l2cap_connect_ind_cb
a8025a98 T rdabt_sdp_l2cap_connect_channel
a8025ad4 T rdabt_sdp_read16
a8025ae4 T rdabt_sdp_read32
a8025b00 T rdabt_sdp_write16
a8025b10 T rdabt_sdp_write32
a8025b24 T rdabt_sdp_copy
a8025b5c T rdabt_sdp_transfer_data
a8025b80 T rdabt_sdp_allocate_tx_buffer
a8025ba8 T SDP_RegisterPSM
a8025bc8 T rdabt_sdp_attribute_retrieve
a8025dc0 T rdabt_sdp_uuid_check
a8025ef0 T rdabt_sdp_attribute_check
a802600c T rdabt_sdp_service_attribute_search_decode
a80262b8 T rdabt_sdp_attribute_search_decode
a8026448 T rdabt_sdp_service_search_decode
a80265a4 T rdabt_sdp_request_dispatcher
a8026630 T rdabt_sdp_service_attribute_response_decode
a8026688 T rdabt_sdp_attribute_response_decode
a80266e0 T rdabt_sdp_service_response_decode
a8026744 T rdabt_sdp_error_decode
a80267dc T rdabt_sdp_response_dispatcher
a8026834 T rdabt_sdp_generate_error_response
a8026894 T rdabt_sdp_generate_attrib_response
a8026904 T rdabt_sdp_generate_service_attrib_response
a8026928 T rdabt_sdp_data_element_converter
a8026c48 T rdabt_sdp_generate_search_response
a8026cf0 T rdabt_sdp_srv_msg_dispatch
a8026d80 T rdabt_sdp_srv_layer_ctrl
a8026ddc T rdabt_sdp_add_primitive_task
a8026e20 T rdabt_sdp_free_primitive_task
a8026e80 T rdabt_sdp_finish_primitive_task
a8026ee8 T rdabt_sdp_find_services_attributes
a8027058 T rdabt_sdp_w4_browse_connections
a80270fc T rdabt_sdp_w4_service_attributes
a802717c T rdabt_sdp_timer_handler
a8027190 T get_list_length
a802724c T read_uuid
a80272a0 T SDP_ServiceResultParse
a802760c T rdabt_sdp_cli_msg_dispatch
a80276b4 T rdabt_sdp_cli_layer_ctrl
a80276d8 T SDP_FreeResults
a802772c T SDP_TerminatePrimitive
a802790c T SDP_ServiceBrowse
a80279a4 T SppInitPort
a80279c4 T SppFindFreePort
a8027a04 T spp_generate_msg
a8027a34 T rdabt_spp_layer_ctrl
a8027afc T SPP_rfcommFlowCtrlCallback
a8027b7c T spp_sdp_search_callback
a8027c44 T SPP_rfcommConnectConfirmCallback
a8027d10 T SPP_Active_Req
a8027e4c T SPP_rfcommDisconnectIndicationCallback
a8027f20 T SPP_Disconnect_Req
a8027fcc T spp_search_port
a8028044 T SPP_Connect_Req
a802805c T SPP_rfcommRxDataCallback
a80280e0 T SPP_rfcommConnectIndicationCallback
a8028230 T rdabt_spp_msg_dispatch
a802835c T SPP_Send_Data
a8028420 T RSE_GetCIDFromConnection
a802845c T RSE_FreeWriteBuffer
a802846c T RSE_GetWriteBuffer
a8028490 T RSE_SrvConnectResponse
a802850c T RSE_Linestatus_Req
a8028544 T RSE_Write
a8028594 T RSE_CliDisconnectPort
a80285e0 T RSE_SrvDisconnectPort
a802861c T RSE_CliConnectPort
a802872c T RSE_SrvRegisterPort
a8028828 T rdabt_rse_layer_ctrl
a8028860 T SYSconfig_Initialise
a8028b60 T SYShalconfig_Map_Extend_Command
a8028b68 T SYShalconfig_Set_Rand_Bd_Addr
a8028b84 T SYShalconfig_Get_Cur_Bd_Addr
a8028b9c T rf_dm_change
a8028c00 T SYShalconfig_Get_Stored_BD_ADDR
a8028c28 T SYShal_Le_Config_Init
a8028cb0 T SYSHal_Config_Apply
a8029188 T SYShal_config_Initialise
a8029374 T SYSinit_Initialise
a80293d0 T SYSinit_Gpio_Write
a80293f8 T SYSinit_Set_Host_Wake_Filter
a8029418 T SYSirq_Enable_Interrupts_Save_Flags
a8029434 T SYSirq_Initialise
a80294cc T test_exit_test
a80294dc T rdabt_test_temp
a8029624 T SYSpwr_Exit_Halt_System
a8029630 T SYSpwr_Initialise
a8029644 T SYSpwr_Is_Low_Power_Mode_Active
a8029650 T SYSpwr_Set_LowFrequencyOscillatorAvailable_Value
a802965c T SYSpwr_Set_Register_Bit
a802967c T SYSpwr_Halt_System2
a8029728 T SYSrand_Seed_Rand
a8029738 T SYSrand_Get_Rand_128_Ex
a8029780 T TCeg_Send_LMP_Event
a8029804 T TCeg_Command_Complete_Event2
a8029950 T TC_Write_Local_Link_Key_Type
a8029960 T TC_Read_Local_Link_Key_Type
a8029970 T TC_Write_Local_Encryption_Key_Length
a8029990 T TC_Read_Local_Encryption_Key_Length
a80299a0 T TC_Read_Local_Hop_Frequencies
a80299b0 T TC_Write_Local_Features
a80299cc T TC_Write_Local_Extended_Features
a80299e8 T TC_Read_Local_Extended_Features
a80299f4 T TC_Read_Local_Hardware_Version
a8029a0c T TC_Read_Local_Hopping_Mode
a8029a18 T TC_Write_Local_Whitening_Enable
a8029a24 T TC_Read_Local_Whitening_Enable
a8029a30 T TC_Read_Local_Timing_Information
a8029a44 T TC_Write_Local_Timing_Information
a8029a5c T TC_Read_Local_Relative_Host_Controller_Mips
a8029a68 T TC_Set_Local_Next_Available_Am_Addr
a8029a94 T TC_Set_HCIT_UART_Baud_Rate
a8029a9c T TC_Write_Park_Parameters
a8029aa4 T TC_Set_Broadcast_Scan_Window
a8029aac T TC_Write_Features
a8029ae4 T TC_Write_Min_Sleep_Interval
a8029af4 T TC_Run_Data
a8029b04 T TC_Set_Host_Seprate
a8029b10 T TC_Discard_Sbc
a8029b28 T TC_Warm_Reset
a8029b3c T TC_LE_Sleep_Flag
a8029b4c T TC_LE_Rssi_Crc_Access
a8029b64 T TC_LE_Read_Sec_Sk_Info
a8029bd8 T TC_LE_Tx_Continuous_Test
a8029bf0 T TC_Set_Peer_key
a8029c00 T TC_Set_Local_key
a8029c10 T TC_WRITE_QOS_QUALITIY_PARA
a8029c20 T TC_Write_Buffer_Size
a8029c90 T TC_Write_Security_Timeouts
a8029d08 T TC_Set_Filter
a8029e4c T TC_MTK_77
a8029e68 T TC_BaseBand_RxTest_Stop
a8029e78 T TC_BaseBand_Test_Tx_continues_Start1
a8029ee4 T TC_BaseBand_Test_Tx_continues_Start
a8029f04 T TC_BaseBand_Test_RxTest_Start
a8029f20 T TC_BaseBand_Test_Stop
a8029f44 T TC_BaseBand_Test_Tx_Burst_Start
a8029f94 T TC_Set_PSkey
a8029fb4 T TC_Write_PHY_Block
a8029fe4 T TC_Write_PHY_Regitser
a802a084 T TC_Read_PHY_Block
a802a0e4 T TC_Read_PHY_Regitser
a802a1a8 T TC_Read_Raw_RSSI
a802a1f4 T TC_Send_Encryption_Key_Size_Mask_Req
a802a234 T TC_Write_AFH_Control
a802a244 T TC_Write_R2P_Min_Search_Window
a802a254 T TC_Read_R2P_Min_Search_Window
a802a26c T TC_Set_Enable_Low_Power_Mode
a802a288 T TC_Set_Disable_Low_Power_Mode
a802a2a4 T TC_Set_Local_Bd_Addr
a802a3c4 T TC_Write_Local_Default_Packet_Type
a802a3d4 T TC_Read_Local_Default_Packet_Type
a802a3ec T TC_Clear_Local_Failed_Attempts_Counter
a802a410 T TC_Set_Local_Failed_Attempts_Counter
a802a434 T TC_Read_Remote_Timing_Information
a802a45c T TC_Write_Local_Hop_Frequencies
a802a4b0 T TC_Write_Local_Hopping_Mode
a802a500 T TC_Decrease_Remote_Power
a802a524 T TC_Increase_Remote_Power
a802a548 T TC_Read_Local_Baseband_Monitors_EDR
a802a680 T TC_Read_Local_Baseband_Monitors
a802a7b8 T TC_Reset_LC_Monitors
a802a7c8 T rdabt_get_native_clock
a802a7d4 T rdabt_get_bt_clock
a802a7e8 T TRAhcit_Register_COMBINED
a802a7f4 T rdabt_hci_SendData
a802a8a4 T rdabt_hci_FreeBuffer
a802a968 T rdabt_hci_GetBuffer
a802ab38 T TRAhcit_COMBINED_Dispatch_Data
a802abe0 T TRAhcit_COMBINED_Dispatch_Event
a802ac08 T TRAhcit_COMBINED_Dispatch_SCO_Data
a802ac68 T TRAhcit_COMBINED_Initialise
a802ad34 T TRAhcit_Set_Init_Timer
a802ad48 T _TRAhcit_Set_Init_Fccsleep_Flag
a802ad58 T _TRAhcit_Set_Init_Finish_Flag
a802ad68 T TRAhcit_Dispatch_Pending_Event
a802ada4 T TRAhcit_Dispatch_Pending_Data
a802adf8 T TRAhcit_Dispatch_Pending_SCO
a802ae34 T TRAhcit_Initialise
a802aeb4 T _BTq_Get_Data_Queue_Ref
a802aef8 T BTq_Initialise_Data_Queue_Type
a802afbc T BTq_Get_L2CAP_Out_Heap_Ref
a802afc8 T BTq_Set_Queue_Filter
a802afe8 T BTq_Dequeue_Next
a802b094 T BTq_Withdraw
a802b134 T BTq_Enqueue2
a802b2e0 T BTq_Get_and_Reset_Queue_Number_Of_Processed_Chunks
a802b310 T _BTq_Initialise_Data_Queue
a802b33c T BTq_Deallocate_Queue_Data
a802b40c T BTq_Reset
a802b53c T _BTq_Initialise_Variable_Chunk_Queue
a802b5cc T _BTq_Allocate_Data_Buffers_by_fix_databuff
a802b734 T _BTq_Initialise_All_Data_Queues
a802b838 T BTq_Initialise
a802b8a0 T TRAhcit_UART_Convert_Baudrate
a802b8d8 T _UART_Baud_Convert
a802b928 T USLCchac_Set_InqScan_MAX_Rand
a802b934 T USLCchac_Is_Sleep_Request_Pending
a802b940 T USLCchac_Is_Sleep_Possible
a802b968 T USLCchac_Initialise
a802b9dc T USLCchac_InqScan_Rand_Wait
a802ba2c T USLCinq_Inquiry_Initialise
a802ba38 T USLCinq_Inquiry_Cancel
a802ba58 T USLCinq_Inquiry_Request
a802bad8 T USLCinqScan_Initialise
a802baf8 T USLCinqScan_Get_EIR
a802bb10 T USLCinqScan_Set_EIR
a802bb9c T USLCinqScan_Request
a802bc28 T USLCmss_Initialise
a802bc38 T USLCmss_Request
a802bcc8 T USLCpage_Initialise
a802bcdc T USLCpage_Cancel
a802bcf8 T USLCpage_Request
a802bdb0 T USLCpageScan_Initialise
a802bdd0 T USLCpageScan_Request
a802be40 T USLCr2p_Initialise
a802be54 T USLCr2p_Write_R2P_Min_Search_Window
a802be60 T USLCr2p_Read_R2P_Min_Search_Window
a802be6c T USLCsched_Set_Tports_Filter
a802be84 T USLCsched_Set_Parameter
a802bea0 T USLCsched_Set_Wifi_frames
a802beb0 T USLCsched_Initialise
a802bef8 T USLCsleep_Initialise
a802bf1c T USLCsleep_Is_Tabasco_Asleep
a802bf30 T USLCsleep_Set_Calib_Filter
a802bf54 T _USLCsleep_Low_Frequency_Calibration_GuangHui
a802c004 T USLCsleep_Request
a802c08c T USLCsleep_Cancel
a802c0ec T USLCsp_Initialise
a802c110 T USLCtm_Initialise
a802c128 T USLCtm_Store_Test_Parameters
a802c21c T USLCtm_Build_Test_Packet_Payload
a802c288 T USLCtm_Testmode_Exit
a802c2e0 T USLCtm_Testmode_Change_Settings
a802c41c T USLCtm_Testmode_Request
a802c4fc T Soundbar_Set_config
a802c510 T Soundbar_Get_Role
a802c51c T Soundbar_Get_Avdtp_Sbc_Header_Num
a802c54c T Soundbar_Set_Avdtp_status
a802c570 T Soundbar_Sync_Play_Number
a802c594 T rdabt_a2dp_get_sourceclk
a802c5a0 T rdabt_a2dp_set_syncclk
a802c5ac T rdabt_a2dp_get_syncclk
a802c5b8 T rdabt_a2dp_check_syncclock
a802c5dc T Soundbar_Set_Control_Cmd
a802c5e8 T Soundbar_Set_UnSniff_Mode
a802c5f4 T Avdtp_Receive_Data_Soundbar
a802c67c T Soundbar_Avdtp_Recieve_Data
a802c6a0 T Avdtp_Get_Current_Clock
a802c6e0 T rdabt_a2dp_set_sourceclk
a802c708 T BTaddr_Build_Sync_Word
a802c784 T DecodeData
a802c804 T DL_Initialise
a802c840 T BTtimer_Set_Timer_On_Timing_Equation
a802c870 T BTtimer_Is_Timing_Equation_Satisfied
a802c88c T DL_Reset_RSSI_History
a802c8a8 T DL_Free_Link
a802c90c T DL_Allocate_eSCO_Link
a802c920 T DL_Initialise_Link
a802c9dc T DL_Alloc_Link
a802ca28 T DL_Initialise_All
a802ca94 T _Dispatch_Invalid_OGF_Command
a802ca98 T HCbound_Check_IAC_LAPs
a802cae0 T _Dispatch_Info_Command
a802cbec T _Dispatch_LE_Command
a802cde8 T _Dispatch_HC_BB_Command
a802d90c T _Dispatch_Local_Status_Command
a802da44 T _Dispatch_Link_Policy_Command
a802dddc T _Dispatch_Link_Control_Command
a802e594 T _Dispatch_Test_Command
a802e62c T HC_Execute_Command
a802e690 T HC_Command_Dispatcher
a802e730 T rdabt_hci_ReceiveData
a802e7b8 T HCI_GenerateCommand
a802e9d0 T HF_Get_Device_Info
a802ea28 T HF_Check_Call_Active
a802ea74 T rdabt_host_ll_search
a802eac0 T rdabt_host_ll_traverse
a802eae8 T rdabt_host_ll_remove_all
a802eb2c T rdabt_host_ll_remove
a802eb94 T rdabt_host_ll_add
a802ebcc T HW_SPI_Read_Data
a802ec0c T HW_SPI_Write_Data
a802ec30 T HWcodec_Initialise
a802ec34 T HWcodec_Is_Valid_SCO_Conversion
a802ec88 T HW_i2c_Sequen_write_hw
a802ed60 T HW_i2c_Write_Address_hw
a802ee08 T HW_i2c_Sequen_write
a802ee7c T HW_i2c_Sequen_read_hw
a802ef20 T HW_i2c_Sequen_read
a802ef50 T rdabt_l2_acl_find_handle
a802ef78 T rdabt_l2_acl_get_bd_addr
a802efa0 T rdabt_l2_acl_disable_RTX_timer
a802efc8 T rdabt_l2_acl_start_RTX_timer
a802f014 T rdabt_l2_acl_exists
a802f054 T rdabt_l2_acl_free_link
a802f0ac T rdabt_l2_acl_shutdown_all
a802f0ec T rdabt_l2_acl_timer_expired
a802f1b4 T rdabt_l2_acl_alloc_link
a802f278 T rdabt_l2_FreeWriteBuffer
a802f298 T rdabt_l2_GetWriteBuffer
a802f300 T rdabt_l2_pkt_handler
a802f3fc T Lelcadvert_Get_Tx_Power_Level
a802f40c T Lelcadvert_Get_Enable
a802f41c T Lelcadvert_Is_Adv_active
a802f430 T Lelcadvert_Init_Channel_map
a802f474 T Lelcadvert_Set_Packet_Data
a802f4c4 T Lelcadvert_Set_Advert_Param
a802f56c T Lelcadvert_Start
a802f618 T Lelcadvert_advert_enable
a802f66c T Lelcadvert_Init
a802f6e0 T Lelcscan_Is_Init_Scan_Active
a802f6f4 T Lelcinit_Prepare_Conn_Send_Buf
a802f7b0 T Lelcinit_Sel_Connect_Interval
a802f874 T Lelcinit_Create_Connect
a802fac4 T Lelcinit_Connect_Cancel
a802fae8 T LMacl_Set_Key_Persistance
a802fb00 T LMacl_Get_Current_Key_Persistance
a802fb0c T LMacl_Initialise
a802fbf4 T LMafh_Set_Request_Channel_Classification
a802fc08 T LMafh_Set_Device_Channel_Map_Update_Notification
a802fc18 T LMafh_Set_AFH_Control_Byte
a802fc24 T LMPafh_Request_Classification_Reporting
a802fc74 T LMafh_Report_Slave_Channel_Classification
a802fd50 T LMafh_LMP_Channel_Classification
a802fd7c T LMafh_Start_Classification_Reporting
a802fdd0 T LMafh_Stop_Classification_Reporting
a802fe00 T LMafh_LMP_Channel_Classification_Req
a802fe88 T LMafh_Initialise_Classification
a802feb8 T LMafh_LM_Write_AFH_Channel_Assessment_Mode
a802ff30 T LMafh_LM_Set_AFH_Channel_Classification
a802ff80 T LMafh_Initialise
a8030008 T _LMafh_Get_AFH_Instant
a8030020 T _LMafh_Set_AFH_Instant
a8030040 T LMafh_LMP_Channel_Classification_Ack
a80300b0 T LMafh_LMP_Set_AFH_Ack
a80300f8 T LMafh_Update_Slave_AFH_If_Required
a80301a0 T LMafh_LMP_Set_AFH
a80301c4 T LMafh_Update_Master_AFH_Piconet
a8030440 T LMafh_Activate_AFH
a80304d4 T array_reverse
a80304f4 T ShiftRows
a803054c T GFMultplyByte
a80305a0 T AES_Key_Init
a8030620 T GFMultplyBytesMatrix
a80306ac T MixColumns
a80306c4 T Encipher
a8030844 T AES_Encrypt
a8030884 T ah
a8030900 T rdabt_hfp_update_indicator
a8030910 T rdabt_get_hfp_device_info
a8030958 T RDABT_RFCOMM_UE_Release_Write_Buffer
a803096c T RDABT_RFCOMM_UE_Get_Write_Buffer
a80309bc T rdabt_rfcomm_credit_peer_nocredit
a8030a28 T rdabt_rfcomm_tfunc_flow_dlci
a8030a44 T rdabt_rfcomm_cc_cancel_timer
a8030a70 T rdabt_rfcomm_cc_transmit_cmesg
a8030ae8 T rdabt_rfcomm_cc_timeout_cb
a8030b20 T rdabt_rfcomm_cc_process_rpn
a8030c3c T rdabt_rfcomm_cc_process_pn
a8030d74 T rdabt_rfcomm_cc_process_rls
a8030e00 T rdabt_rfcomm_cc_process_fcoff
a8030e90 T rdabt_rfcomm_cc_process_fcon
a8030f1c T rdabt_rfcomm_cc_process_test
a8030fa8 T rdabt_rfcomm_cc_process_msc
a80310a4 T rdabt_rfcomm_cc_data_ind
a8031188 T rdabt_rfcomm_cc_create_fcon
a80311a4 T rdabt_rfcomm_cc_create_fcoff
a80311c0 T rdabt_rfcomm_cc_create_nsc
a80311ec T rdabt_rfcomm_cc_create_rpn_comm
a8031264 T rdabt_rfcomm_cc_create_msc
a803130c T rdabt_rfcomm_cc_create_rls
a8031334 T rdabt_rfcomm_cc_create_credit_pn
a803138c T rdabt_rfcomm_cc_create_test
a80313e8 T rdabt_sdp_add_service
a8031410 T rdabt_sdp_remove_service
a8031440 T rdabt_sdp_insert_service
a8031480 T rdabt_sdp_query
a80314c0 T rdabt_sdp_valid_record
a80314e4 T rdabt_sdp_traverse_list
a80315c0 T rdabt_sdp_service_search
a80316d4 T rdabt_sdp_encode_attribute_list
a80317ac T rdabt_sdp_encode_search_pattern
a8031898 T rdabt_sdp_genetate_service_attribute_request
a803194c T rdabt_stack_ent_dlc_linestat_cb
a803195c T rdabt_rfcomm_se_remove_all_stack_entity
a8031980 T rdabt_rfcomm_se_remove_all_stack_entity_helper
a8031994 T rdabt_rfcomm_se_remove_stack_entity_by_addr_and_dlci
a80319d0 T rdabt_rfcomm_se_remove_stack_entity_by_portnum
a8031a28 T rdabt_rfcomm_se_lookup_stack_entity_by_addr_and_dlci
a8031a64 T rdabt_rfcomm_se_lookup_stack_entity_by_portnum
a8031a94 T rdabt_rfcomm_se_add_stack_entity
a8031aac T rdabt_stack_ent_dlc_rel_ind_cb
a8031b60 T rdabt_stack_ent_dlc_credit_flow_cb
a8031be0 T rdabt_stack_ent_dlc_control_cb
a8031c78 T rdabt_stack_ent_dlc_flow_ind_cb
a8031d08 T rdabt_stack_ent_dlc_paramneg_cb
a8031e14 T rdabt_stack_ent_dlc_portneg_cb
a8032060 T rdabt_rfcomm_init_se_struct
a803209c T rdabt_stack_ent_dlc_data_ind_cb
a8032120 T rdabt_stack_ent_dlc_estab_conf_cb
a80321f0 T rdabt_stack_ent_dlc_estab_ind_cb
a803231c T TCI_Dispatch_Prop_Command
a8032480 T Rdabt_Pskey_Write_r21
a80324d0 T RDABT_core_Intialization
a80324e0 T delay
a80324f4 T RDABT_core_rf_Initialization
a8032580 r .btrom
a8032580 R LSLCacc_packet_slots
a8032590 R _LSLCafh_channel_bit_vector
a803259c R permutationRF79
a80325ac R permutationRF23
a80325bc R tra_hcit_initialise_table
a80325c0 R lmp_command_table
a80326c8 R lmp_opcode_list
a803272c R lmp_opcode_accept_list
a8032748 R lmp_opcode_not_accept_list
a8032764 R lmp_opcode_pending
a80327b8 R lmp_command_table_escape_opcode_4
a8032844 R _LM_Encode_lmp_command
a80328c8 R _LM_Encode_lmp_command_escape_opcode_4
a803290c R _pdu_callback_table
a8032954 R _accept_callback_table
a803298c R return_event_link_key
a803299c R _LMqos_max_slot_pkt_types
a80329a4 R _LMqos_EDR_max_slot_pkt_types
a80329ac R rate_to_pkt_mapping
a80329b4 R EDR_rate_to_pkt_mapping
a80329dc R LMscoctr_eSCO_lm_pkt
a8032a40 R exparray
a8032b40 R logarray
a8032c40 R matrix
a8032d40 R predefined_public_key
a8032e5c R _LMsec_Event_Timer
a8032ea4 R hc_cmd_complete_event_array
a8033054 R link_control_command_len
a803308c R link_policy_command_len
a80330a0 R hc_bb_command_len
a8033120 R information_command_len
a803312c R status_command_len
a8033138 R test_command_len
a8033140 R hc_le_command_len
a8033170 R ogf_jump_table
a8033194 R tc_cmd_complete_event_array2
a8033204 R tc_command_table
a8033424 R rdabt_hci_command_parm_types
a80334b8 R rdabt_hci_group1_opcodes
a8033530 R rdabt_hci_group2_opcodes
a8033554 R rdabt_hci_group3_opcodes
a8033630 R rdabt_hci_group4_opcodes
a8033644 R rdabt_hci_group5_opcodes
a803365c R rdabt_hci_group6_opcodes
a8033664 R rdabt_hci_group7_opcodes
a8033668 R rdabt_hci_group8_opcodes
a80336c8 R rdabt_hci_command_groups
a8033708 R rdabt_vco_test_r21
a8033738 R SYSconst_Build_Time_Features
a8033780 r .bt_rodata
a803380c R g_tgtBtStackCfg
a8033880 R g_tgtBtStackModuleList
a80338fc R gap_service_uuid
a8033900 R gatt_service_uuid
a8033904 R gatt_service
a803395c R ll_control_table
a8033a70 R mgr_msg_hdlr_table
a8033b08 R spp_msg_hdlr_table
a8033c68 R element_spp_template
a8033c8c R attribute_spp_template
a8033ccc R spp_service_name
a8033cd8 R attribute_dun_service_class
a8033ce4 R attribute_dun_profile_list
a8033cfc R attribute_dun_profile
a8033d08 R dun_service_name
a8033d18 R attribute_dun_browse
a8033d24 R attribute_dun
a8033d74 R attribute_header_service_class
a8033d80 R attribute_header_version
a8033d8c R attribute_header
a8033dbc R attribute_browsegroup_service_class
a8033dc8 R attribute_browsegroup
a8033de8 R attribute_pdl_l2cap
a8033df4 R attribute_pdl_rfcomm
a8033e0c R attribute_rfcomm_pdl
a8033e24 R btcore_rf_init_21_3
a8033f7c R btcore_rf_init_21
a80341c4 R rdabt_pskey_sleep
a80341cc R rdabt_pskey_rf_setting
a80341d8 R rdabt_pskey_acl_buf_size_setting
a80341e8 R rdabt_pskey_pcm_config
a80341ec R rdabt_pskey_sys_feature
a8034200 t .boot_code
a8034200 T _boot_sector
a8034200 A _bt_flash_end
a8034200 A _xcpu_flash_start
a8034200 T boot_Sector
a8034488 W boot_sector_start
a8034490 T boot_SectorFixRom
a8034494 T boot_SectorEnterBootMonitor
a80344b0 T hal_HstSendEventNop
a80344b4 T hal_SysSetupNonePLL
a80344b8 T hal_SysSetupPLL
a80344fc T hal_SysEnableClkOut
a8034548 T hal_SysEnable8KSampleRate
a8034564 T hal_SysGetChipId
a8034594 T tgt_GetMemdFlashConfig
a80345a0 T tgt_GetMemdRamConfig
a80345ac T g_tgtMemdFlashCfg
a80345b4 T g_tgtMemdRamCfg
a80345bc T hal_EbcFlashOpen
a80345c8 T hal_EbcCsSetup
a80346dc T hal_EbcCsOpen
a80347cc T hal_EbcSramOpen
a8034888 T hal_BootSectorSetEbcConfig
a80348a8 T hal_BootSectorSetEbcFreq
a80348bc T hal_BootSectorSetEbcRamId
a80348c8 T hal_BootSectorGetEbcRamId
a80348e0 t .main_entry_section
a80348e0 T _code_base
a80348e0 W boot_loader_start
a80348fc T boot_LoaderEnter
a8034920 T boot_set_testmode
a803492c T boot_Loader
a8034b30 T _board_config_end
a8034b30 T _board_config_start
a8034b30 A _int_rom_flash_end_location
a8034b30 A _int_rom_flash_start_location
a8034b30 A _irq_sys_sram_flash_start_location
a8034f10 A _boot_sys_sram_flash_start_location
a8034f10 A _irq_sys_sram_flash_end_location
a8035390 A _boot_sys_sram_flash_end_location
a8035390 A _sys_sram_flash_start_location
a8035930 t .rotext
a8035930 A _fast_cpu_memory_overlay_flash_end_location
a8035930 A _rom_flash_start_location
a8035930 A _sys_sram_flash_end_location
a8035930 A _sys_sram_tflash_end_location
a8035930 A _sys_sram_tflash_start_location
a8035930 T hal_LpsDeepSleepWrapper
a8035990 T hal_GdbFlushCache
a80359a8 T hal_GdbFlushCacheData
a80359d0 T sxr_TaskSetUp
a80359f8 T sxr_TaskFirst
a8035a3c T sxr_JobSetUp
a8035a70 T __mulsf3
a8035b6c T __gtsf2
a8035bb0 T __ltsf2
a8035bf4 T __fixsfsi
a8035c4c T __extendsfdf2
a8035c78 T __floatunsisf
a8035ce0 T __muldf3
a8035e98 T __divdf3
a8035fd0 T __floatsidf
a8036048 T __fixdfsi
a80360ac T __make_dp
a80360cc T __truncdfsf2
a8036108 T __lshrdi3
a8036144 T __ashldi3
a8036180 T __ucmpdi2
a80361a8 T __clzsi2
a80361e4 T __fpcmp_parts_f
a8036248 T __make_fp
a8036260 T __pack_d
a8036404 T __unpack_d
a80364b0 T _Z9rtos_mainv
a80364b4 T _ZN5ExtIO6updateEv
a80364f8 T _Z13ext_io_out_b3i
a8036534 T _Z13ext_io_out_b2i
a8036570 T _Z13ext_io_out_b1i
a80365ac T _Z13ext_io_out_b0i
a80365e4 T _Z12ext_io_in_b1v
a803660c T _Z12ext_io_in_b0v
a8036630 T _Z12extIo_updatev
a8036650 T _ZN5ExtIOC1E7PinNameS0_S0_S0_
a80366d4 W _ZN11FrameBuffer5clearEv
a8036838 W _ZN6ButtonC1E7PinNamehb
a80368e0 W _ZN19LcdOled12832_sh13069write_cmdEh
a8036908 W _ZN19LcdOled12832_sh13066brightEv
a8036928 W _ZN19LcdOled12832_sh13064darkEv
a8036948 W _ZN19LcdOled12832_sh13063offEv
a8036958 W _ZN19LcdOled12832_sh13062onEv
a8036968 W _ZN19LcdOled12832_sh13069chip_initEv
a8036af0 W _ZN19LcdOled12832_sh13064initEv
a8036b00 W _ZN19LcdOled12832_sh13066updateEv
a8036c7c W _ZN9LcdWithHzC1EP3I2C
a8036f3c W _ZN3Lcd9putc16_hzEiit
a803703c W _ZN9LcdWithHz9putc16_hzEiit
a80370d8 T _ZN5BoardC1Ev
a80372d0 W _ZN3Lcd5clearEv
a80373e8 W _ZN11UiLcdString15update_languageEv
a8037414 T _ZN5UiLcd18on_language_changeEi
a8037424 T _ZN5UiLcd26ui_string_language_handlerEi
a8037474 W _ZN19FunctionPointer1Arg12membercallerI5UiLcdEEvPvPci
a80374b0 W _ZN6Thread12membercallerI5UiLcdEEvPvPcPKv
a80374ec W _ZN5BlockC1EiiPKh
a8037554 W _ZN6Button6activeEv
a803757c W _ZN6Button7handlerEv
a80375b8 W _ZN11UiLcdString13language_zhcnEv
a80375f0 W _ZN11UiLcdString16language_englishEv
a8037628 W _ZN11UiLcdConfig20string_enum_get_itemEPKciPiPc
a80376d8 W _ZN11UiLcdConfig25string_enum_get_item_nameEiPKci
a803775c W _ZN12UiLcdMessageC1EP3Lcd
a80377f8 W _ZN11UiLcdConfigC1EP3LcdP6ButtonS3_S3_S3_
a8037890 W _ZN4listI19FunctionPointer1ArgE9push_backERKS0_
a8037960 T _ZN5UiLcdC1Ev
a8037cf0 W _ZN3Lcd8printf12EiiPKcz
a8037e9c W _ZN3Lcd6puts16EiiPKc
a8037f4c W _ZN3Lcd8printf16EiiPKcz
a8037f84 W _ZN12UiLcdMessage10output_msgEPKc
a8037fc4 W _ZN11UiLcdConfig14status_refreshEb
a80386c8 T _ZN5UiLcd10ThreadLoopEPKv
a803893c T _Z15uilcd_power_offv
a80389b8 T _Z20uilcd_power_on_checkv
a8038a30 T _Z21uilcd_power_off_checkv
a8038c5c W _ZN3Lcd14compact_printfEiiPKcz
a8038d48 T _Z22uilcd_power_on_displayv
a8038e14 T _Z23uilcd_power_off_displayv
a8038e84 W _ZN11FrameBuffer11clear_blockEiiP5Block
a8038f90 T _ZN7BatteryC1Ev
a8039060 W _ZN15FunctionPointer12membercallerI6BeeperEEvPvPc
a8039098 W _ZN6Beeper2onEi
a80390e0 W _ZN6Beeper4playEv
a8039170 T _ZN7Battery6updateEv
a8039780 W _ZN3Lcd12display_iconEPK4Iconb
a803981c T _Z30uilcd_battery_display_poweroffv
a8039d8c T _Z19uilcd_sleep_handlerv
a8039fcc T _Z20wakeup_set_interruptv
a8039fe4 T _Z12wakeup_writei
a803a018 T _Z11wakeup_readv
a803a3bc T _Z11hal_link_txPhi
a803a3dc T _Z11hal_link_rxv
a803a408 T _Z13hal_link_initPhi
a803ae40 T _Z12link_cmd_addhPvt
a803b12c T _ZN4COMMC1Ev
a803b29c T _Z6usb_txPhi
a803b2bc T _ZN7CommUsbC1Ev
a803b3e0 W _ZN12UI_Bluetooth18on_language_changeEi
a803b444 W _ZN19FunctionPointer1Arg12membercallerI12UI_BluetoothEEvPvPci
a803b480 W _ZN19FunctionPointer2Arg12membercallerI12UI_BluetoothEEvPvPcPhi
a803b4c0 W _ZN15FunctionPointer12membercallerI12UI_BluetoothEEvPvPc
a803b4f4 W _ZN4listIN11UiLcdConfig11CONFIG_ITEMEE10push_frontERKS1_
a803b7c4 W _ZN12UI_Bluetooth18bt_enabled_changedEv
a803b850 W _ZN4Flag7changedEv
a803b8b0 W _ZN12UI_Bluetooth15bt_info_handlerEPhi
a803b924 W _ZN12UI_Bluetooth24bluetooth_status_handlerEi
a803bb68 W _ZN19FunctionPointer1Arg12membercallerI8UiEngineEEvPvPci
a803bba4 W _ZN8UiEngine18on_language_changeEi
a803c10c W _ZN8UiEngine22printer_status_handlerEi
a803c268 T _ZN9PrnEngine9speed_setEi
a803c29c T _ZN9PrnEngine7cmd_getEv
a803c3d0 W _ZN6Thread12membercallerI9PrnEngineEEvPvPcPKv
a803c424 T _ZN9PrnEngine15speed_wait_timeEv
a803c458 T _ZN9PrnEngine10speed_moveEv
a803c474 T _ZN9PrnEngine14engine_handlerEPKv
a803c83c T _ZN9PrnEngineC1Ev
a803ca08 T _ZN9PrnEngine10motor_moveEv
a803caa0 T _ZN9PrnEngine21markdetect_value_readEv
a803cb08 T _ZN9PrnEngine12markdetectedEi
a803cb0c T _ZN9PrnEngine17markdetect_scrollEv
a803cb3c T _ZN9PrnEngine16markdetect_resetEv
a803cb68 T _ZN9PrnEngine12status_checkEv
a803cba8 T _ZN9PrnEngine7head_txEPhi
a803cc14 T _ZN9PrnEngine10head_latchEv
a803ccdc T _ZN9PrnEngine10stb_enableEi
a803cd3c T _Z17hal_timeout_starti
a803cd7c T _Z16hal_timeout_initPFvvE
a803ce44 T _ZN6PrnCmd13goto_mark_allEt
a803ce64 T _ZN6PrnCmd4feedEt
a803cff4 T c_start_main
a803d0d4 T __cxa_guard_acquire
a803d0d8 T __cxa_guard_release
a803d0dc T __cxa_guard_abort
a803d384 T vsprintf
a803d398 T init_clock_104M
a803d3b8 W _Z10init_clockv
a803d404 T _Z17init_debug_serialv
a803d430 T _Z18debug_serial_writec
a803d464 T _Z11init_mallocv
a803d468 T _Z8init_cpuv
a803d4e4 T _Z14us_ticker_readv
a803d4f8 T _Z19reg_restore_defaultv
a803d520 T _Z14reg_value_savev
a803d5a4 W _Z14init_reg_valuev
a803d634 T DSM_EnqNvram
a803d65c T _Z8cpu_idlev
a803d660 T _Z14cpu_deep_sleepm
a803d69c T _Z9cpu_resetv
a803d6ac T _Z18cpu_poweroff_resetv
a803d6c0 T _Z12cpu_poweroffv
a803d6d0 T free
a803d6e0 T malloc
a803d6f0 T _Z13global_mallocj
a803d700 T _Z23mem_malloced_total_sizev
a803d70c T _Z20mem_malloc_free_sizev
a803d724 T _ZdlPv
a803d734 T _Znwj
a803d744 T _Z12os_info_taskPFvPciE
a803d7dc T _Z7os_infoPFvPciE
a803da50 T _Z10rtos_startv
a803da7c T _Z9rtos_initv
a803da9c T _Z14osThreadCreatePKcPFvPKvEPv10osPriorityi
a803daf8 T _Z14ms_ticker_readv
a803db0c T _ZN5Timer7read_msEv
a803db28 T _ZN6Ticker13event_handlerEPv
a803db38 T _ZN6Ticker5setupEj
a803db7c T _ZN6TickerC2Ev
a803dc04 T _ZN3SPI9frequencyEi
a803dc54 T _ZN3SPI5writeEi
a803dfa0 T _ZN3SPI6selectEi
a803e054 T _ZN3SPIC1E7PinNameS0_S0_S0_
a803e190 T _ZN8AnalogIn8read_rawEv
a803e1c8 T _ZN8AnalogInC1E7PinName
a803e1f0 T _ZN10DigitalOut5writeEi
a803e244 T _ZN10DigitalOut4modeE7PinMode
a803e280 T _ZN10DigitalOutaSEi
a803e2dc T _ZN10DigitalOutC1E7PinNamei
a803e49c T _ZN11InterruptIn12_irq_handlerEmi
a803e4c0 T _ZN11InterruptIn11disable_irqEv
a803e4fc T _ZN11InterruptIn10enable_irqEv
a803e53c T _ZN11InterruptIn10setup_fallEv
a803e554 T _ZN11InterruptIn10setup_riseEv
a803e654 T _ZN11InterruptInC1E7PinName
a803e694 T _ZN9DigitalIn4modeE7PinMode
a803e710 T _ZN9DigitalIncviEv
a803e754 T _ZN9DigitalInC1E7PinName
a803e894 T _Z28raw_serial_rx_dma_rx_restarti
a803e8e4 T _ZN14RawSerialRxDma5writeEPKvi
a803e930 T _ZN14RawSerialRxDma18write_dma_finishedEv
a803e934 T _ZN14RawSerialRxDma9write_dmaEPKvi
a803e96c T _ZN14RawSerialRxDma9set_speedEi
a803e9ac T _ZN14RawSerialRxDma11set_timeoutEi
a803e9b0 T _ZN14RawSerialRxDma14disable_wakeupEv
a803e9c0 T _ZN14RawSerialRxDma13enable_wakeupEv
a803e9d0 T _ZN14RawSerialRxDma10set_formatEPKc
a803ea10 T _ZN14RawSerialRxDma4readEPvi
a803eab4 T _ZN14RawSerialRxDma5setupE7PinNameS0_
a803ecf4 T _ZN14RawSerialRxDmaC1E7PinNameS0_Pvi
a803edd0 T _ZN6PwmOut13pulsewidth_usEi
a803ede8 T _ZN6PwmOut5writeEf
a803ee44 T _ZN6PwmOut9period_usEi
a803ee60 T _ZN6PwmOut6periodEf
a803eea0 T _ZN6PwmOut5setupE7PinName
a803ef10 T _ZN6PwmOutC1E7PinName
a803ef24 T _ZN3I2C9set_speedE8I2CSpeed
a803ef68 T _ZN3I2C5writeEiPKcib
a803f87c T _ZN3I2CC1E7PinNameS0_
a803f9fc W _ZN6USBHAL3SOFEi
a803fa00 W _ZN6USBHAL16EP1_OUT_callbackEv
a803fa04 W _ZN6USBHAL15EP1_IN_callbackEv
a803fa08 W _ZN6USBHAL16EP2_OUT_callbackEv
a803fa0c W _ZN6USBHAL15EP2_IN_callbackEv
a803fa10 W _ZN6USBHAL16EP3_OUT_callbackEv
a803fa14 W _ZN6USBHAL15EP3_IN_callbackEv
a803fa18 T _ZN9USBDevice8busResetEv
a803fa1c T _ZN9USBDevice16EP0setupCallbackEv
a803fa20 T _ZN9USBDevice6EP0outEv
a803fa24 T _ZN9USBDevice5EP0inEv
a803fa28 T _ZN9USBDevice19connectStateChangedEj
a803fa2c T _ZN9USBDevice19suspendStateChangedEj
a803fa30 T _ZN9USBDevice20USBCallback_busResetEv
a803fa34 T _ZN9USBDevice19USBCallback_requestEv
a803fa38 T _ZN9USBDevice28USBCallback_requestCompletedEPhm
a803fa3c T _ZN9USBDevice28USBCallback_setConfigurationEh
a803fa40 T _ZN9USBDevice24USBCallback_setInterfaceEth
a803fa44 T _ZN9USBDevice17configurationDescEv
a803fa48 T _ZN9USBDevice16reportDescLengthEv
a803fa4c T _ZN9USBDevice10deviceDescEv
a803fa50 T _ZN9USBDevice16stringLangidDescEv
a803fa54 T _ZN9USBDevice23stringImanufacturerDescEv
a803fa58 T _ZN9USBDevice17stringIserialDescEv
a803fa5c T _ZN9USBDevice24stringIConfigurationDescEv
a803fa60 T _ZN9USBDevice20stringIinterfaceDescEv
a803fa64 T _ZN9USBDevice18stringIproductDescEv
a803fa68 T _ZN9USBDevice10disconnectEv
a803fa90 T _ZN9USBDeviceC2Ettt
a803facc T _ZN13RawUSBPrinter4readEPvj
a803fae0 T _ZN13RawUSBPrinter19USBCallback_requestEv
a803fae4 T _ZN13RawUSBPrinter28USBCallback_requestCompletedEPhm
a803fae8 T _ZN13RawUSBPrinter28USBCallback_setConfigurationEh
a803faec T _ZN13RawUSBPrinter16EP2_OUT_callbackEv
a803faf0 T _ZN13RawUSBPrinter9set_speedEi
a803faf4 T _ZN13RawUSBPrinter11set_timeoutEi
a803faf8 T _ZN13RawUSBPrinter10set_formatEPKc
a803fafc T _ZN13RawUSBPrinter6readEPEPhPm
a803fb00 T _ZN13RawUSBPrinter10deviceDescEv
a803fb04 T _ZN13RawUSBPrinter20stringIinterfaceDescEv
a803fb08 T _ZN13RawUSBPrinter18stringIproductDescEv
a803fb0c T _ZN13RawUSBPrinter23stringImanufacturerDescEv
a803fb10 T _ZN13RawUSBPrinter17stringIserialDescEv
a803fb14 T _ZN13RawUSBPrinter17configurationDescEv
a803fb18 T _ZN13RawUSBPrinter5writeEPKvj
a803fb50 T _ZN13RawUSBPrinterC1EPKcS1_tttb
a803fde4 T hal_LpsOpen
a803fe30 T hal_LpsReady
a803fe6c T hal_LpsIrqHandler
a803fea4 T hal_LpsDeepSleep
a804001c T hal_LpsSleep
a80400f0 T hal_LpsClockSysChangeAllowed
a80401f8 T hal_UsbSendIsDone
a8040210 T hal_UsbIsWorkAsHost
a8040238 T hal_UsbSetDisconnCb
a8040244 T hal_UsbSetMode
a8040250 T hal_musb_start
a8040454 T hal_UsbClose
a8040528 T hal_UsbReset
a8040548 T hal_UsbOpen
a8040568 T hal_UsbRecv
a80405c0 T musb_g_tx
a804067c T hal_UsbSend
a8040758 T musb_g_rx
a8040a08 T BAL_SysUSBDeviceDetect
a8040a60 T hal_usbSpiRead
a8040aac T hal_UsbRoleDet
a8040bec T musb_notify_conn_msg
a8040c14 T hal_UsbIrqHandler
a8041758 T hal_AnaGpadcGetCalibHigh
a8041764 T hal_AnaGpadcGetCalibLow
a8041770 T hal_AnaGpadcWakeUp
a804178c T hal_AnaGpadcSleep
a804179c T hal_AnaGpadcGetRaw
a804182c T hal_AnaGpadcOpen
a804185c T hal_AnaGpadcGpadc2Volt
a8041940 T hal_AnaGpadcGet
a8041958 T bal_GetSleepState
a8041964 T hal_UsbDisconnCb
a8041970 T BAL_SysTimerTimeout
a8041990 T BAL_SysTask
a8041a74 T pmd_SetHighActivity
a8041a84 T pmd_BatteryLevelToPercent
a8041b4c T pmd_ChargerSetBgLpMode
a8041bfc T pmd_GetEncryptUid
a8041c38 T pmd_SetChargeCurrent
a8041cd0 T pmd_RestoreChargerAtPowerOff
a8041cfc T pmd_GetGpadcBatteryLevel
a8041d60 T pmd_GetBatteryLevel
a8041ddc T pmd_InitCharger
a8041fb0 T umss_Open
a80420f0 T umss_TransportEventProcess
a8042170 T sxs_FsIdleHook
a8042188 T sxs_StartAll
a80421cc T sap_main
a8042200 T sxs_DebugIdleHook
a804223c T sxs_TaskIdle
a8042294 T onBtConnectChange
a8042298 T _ZN12RawBluetooth5writeEPKvj
a804229c T _ZN12RawBluetoothC1EPKcPKhS1_7BT_MODE
a8042340 T onBtRx
a8042390 T _Z19bt_get_default_addrPh
a8042684 T c_sleep_clear
a8042694 T app_gatt_process_msg
a80426fc T app_bt_add_service_req
a8042728 T app_bt_set_adv_data
a80427d8 T app_ble_visible_req
a8042824 T app_bt_close_req
a8042848 T app_bt_init_req
a804286c T app_set_bt_visible_req
a8042890 T app_adp_msg_handle
a80428f4 T app_common_msg_handle
a8042984 T app_mgr_add_device
a8042a14 T app_mgr_store
a8042ae0 T app_find_bt_device
a8042b2c T app_mgr_msg_handle
a8042bf8 T app_bt_msg_handle
a8042c68 T ap_serivce_add
a8042c8c T ap_service_task_start
a8042d0c T _Z16isp_reset_to_ispv
a8042d28 W _ZN6USBHAL8busResetEv
a8042d2c W _ZN6USBHAL16EP0setupCallbackEv
a8042d30 W _ZN6USBHAL6EP0outEv
a8042d34 W _ZN6USBHAL5EP0inEv
a8042d38 W _ZN6USBHAL19connectStateChangedEj
a8042d3c W _ZN6USBHAL19suspendStateChangedEj
a8042d40 T _ZN6USBHALC2Ev
a8042d4c T hal_Open
a8042e08 T BAL_TaskInit
a8042e8c T BAL_Initalise
a8042ea4 T ap_ble_spp_start_server_req
a8042f44 T app_spp_msg_handle
a8042fe0 T isspace
a8042ff8 T atol
a8043048 T memset
a8043088 T strncpy
a80430a4 T strcmp
a80430c8 T strcpy
a80430dc T strcat
a80430f8 T strchr
a8043118 T strncmp
a8043140 T strstr
a8043190 T _Z11crc32_calc1mPhi
a80431bc T _Z16mem_region_countv
a80431c8 T _Z15mem_region_infoiPPcPm
a80431dc T _Z21mem_region_other_sizev
a80431e8 T _Z9reg_countv
a80431fc T _Z8reg_namei
a804320c T _Z8reg_typei
a804321c T _Z8reg_sizei
a804322c T _Z8reg_infoi
a804323c T _Z16reg_get_data_ptri
a8043254 T _Z26reg_exec_function_by_indexi
a804327c T _Z9reg_indexPKc
a80432c0 T _Z11reg_set_u32PKcm
a80432ec T _Z14reg_get_stringPKcS0_
a804331c T _Z11reg_get_u32PKcm
a804334c W _Z16sleep_timer_readv
a8043368 W _Z11sleep_clearv
a8043380 W _Z7wait_usi
a80433b0 W _Z7wait_msi
a8043400 W _Z18object_thread_loopPKv
a8043418 W _ZN6ThreadC1EPKcPFvPKvEPv10osPrioritym
a804343c T _ZN19FunctionPointer2Arg4callEPhi
a8043468 T _ZN19FunctionPointer1Arg6attachEPFviE
a8043470 T _ZN19FunctionPointer1ArgC1EPFviE
a8043480 T _ZN19FunctionPointer1Arg4callEi
a80434a4 T _read
a80434cc T _lseek
a80434fc T readdir
a8043510 T fread
a8043538 T fseek
a8043548 T opendir
a8043598 T _ZN5Timer5resetEv
a80435b4 W _ZN5Timer9slicetimeEv
a80435cc T _ZN5Timer7read_usEv
a80435ec T _ZN5Timer5startEv
a8043608 T _ZN5TimerC1Ev
a8043624 T _ZN4FifoC1EPvi
a8043644 T _ZN4Fifo4sizeEv
a804364c T _ZN4Fifo6lengthEv
a8043668 T _ZN4Fifo11free_lengthEv
a804368c T _ZN4Fifo21get_read_block_lengthEv
a80436a4 T _ZN4Fifo5flushEv
a80436b0 T _ZN4Fifo5putchEh
a80436f4 T _ZN4Fifo5getchEPh
a804371c T _ZN4Fifo5peekcEPh
a8043734 T _ZN4Fifo4peekEPvi
a80437b0 T _ZN4Fifo5writeEPKvi
a8043838 T _ZN4Fifo4readEPvi
a80438bc T _ZN4FifoD1Ev
a80438d8 T _ZN4FifoD0Ev
a8043900 T _ZN4FifoC1Ei
a804393c T _ZN15FunctionPointer6attachEPFvvE
a8043944 T _ZN15FunctionPointerC1EPFvvE
a8043954 T _ZN15FunctionPointer4callEv
a8043974 W _ZN9DirHandle7telldirEv
a804397c W _ZN9DirHandle7seekdirEl
a8043980 W _ZN9DirHandleD1Ev
a804398c W _ZN13BaseDirHandleD1Ev
a8043998 W _ZN13BaseDirHandle8closedirEv
a80439b0 W _ZN13BaseDirHandle7telldirEv
a80439b4 W _ZN13BaseDirHandle7seekdirEl
a80439b8 W _ZN13BaseDirHandle9rewinddirEv
a80439c0 T _ZN14FileSystemLike7opendirEv
a80439e0 W _ZN13BaseDirHandleD0Ev
a80439f8 W _ZN9DirHandleD0Ev
a8043a10 W _ZN13BaseDirHandle7readdirEv
a8043a4c T _ZN8FilePath8fileNameEv
a8043a50 T _ZN8FilePath12isFileSystemEv
a8043a70 T _ZN8FilePath10fileSystemEv
a8043a8c T _ZN8FilePathC1EPKc
a8043ad4 W __cxa_pure_virtual
a8043ad8 T _ZN8FileBase3getEi
a8043af4 T _ZN8FileBase7getNameEv
a8043af8 T _ZN8FileBase11getPathTypeEv
a8043afc T _ZN8FileBase6lookupEPKcj
a8043b40 T hal_AudSetMicAnaVolume
a8043b5c T hal_AudEnableCodecAuxPll
a8043b7c T hal_abbPdAll
a8043d08 T hal_AudSetSampleRate
a8043da8 T hal_AbbOpen
a8043e88 T hal_abbEnablePa
a8043ecc T hal_DbgAssert
a8043f3c T hal_IsBtStart
a8043f48 T hal_IsBtSleep
a8043f54 T hal_IsBtDead
a8043f78 T hal_BtNotifyDataSent
a8043fb8 T hal_BtStop
a8044020 T hal_BtStart
a80440a8 T hal_BtIrqHandler
a804419c T hal_BtSetHostIrqHandler
a80441f0 T hal_DbgFatalTrigger
a8044208 T hal_DmaIrqHandler
a8044220 T hal_GpioInit
a8044224 T hal_GpioResetIrq
a804424c T hal_GpioIrqSetHandler
a8044284 T hal_GpioIrqSetMask
a804435c T hal_GpioUpOrDn
a80443a4 T hal_GpioSetPinMux
a80443cc T hal_GpioIrqHandler
a8044414 T hal_GpioClr
a8044468 T hal_GpioSet
a80444d0 T hal_GpioGet
a8044534 T hal_GpioSetIn
a8044598 T hal_GpioSetOut
a80445fc T hal_GpioOpen
a80446f0 T hal_IspiCsActivate
a8044714 T hal_IspiCsDeactivate
a8044740 T hal_IspiUpdateDivider
a8044780 T hal_IspiGetData
a80447b8 T hal_IspiTxFinished
a80447c8 T hal_IspiTxFifoAvail
a80447d8 T hal_IspiSendData
a8044810 T hal_IspiOpen
a804486c T hal_MapEngineOpen
a8044890 T hal_MapEngineRegisterModule
a80448ac T musb_select_ep
a80448c4 T musb_write_fifo_ram
a8044940 T musb_read_fifo_ram
a80449bc T hal_DbgPxtsSendTrigger
a80449d0 T hal_AbbIspiWrite
a8044a0c T hal_AbbRegWrite
a8044a20 T hal_AbbIspiRead
a8044a78 T hal_AbbRegRead
a8044afc T hal_AllSpiRegCheck
a8044ba0 T hal_AudDeepPowerDown
a8044bd0 T hal_AudSetSpkCfg
a8044bdc T hal_AudSetRcvGain
a8044bec T hal_AudSetHeadGain
a8044c44 T hal_AudForcePowerDown
a8044c64 T hal_RfspiInitQueue
a8044cb0 T hal_SysGetFreq
a8044dac T hal_SysPwmManualMode
a8044dd0 T hal_SysGetResetCause
a8044e04 T hal_SysExitCriticalSection
a8044e10 T hal_SysEnterCriticalSection
a8044e1c T hal_SysSetSpiFlashClock
a8044f10 T hal_SysChangeSystemClockByOneStep
a8044f7c T hal_SysSetupSystemClock
a8045034 T hal_SysSoftReset
a8045058 T hal_SysFSF2SF
a80450f0 T hal_SysGetRequestFreq
a8045108 T hal_SysSF2FSF
a80451b0 T hal_SysSetVocClock
a80452cc T hal_SysSetVocClockDefault
a80452e4 T hal_SysChangeSystemClock
a8045444 T hal_SysUpdateSystemFrequency
a8045470 T hal_SysRequestFreq
a80454e0 T hal_SysRestart
a8045518 T hal_SysShutdown
a8045584 T hal_IfcOpen
a80455a0 T hal_TcuOpen
a80455ac T hal_TcuStop
a80455c4 T hal_TcuIrqHandler
a8045600 T hal_TcuSetWrap
a804562c T hal_TcuInit
a8045710 T hal_TimWatchDogKeepAlive
a804572c T hal_TimWatchDogClose
a804573c T hal_TimWatchDogStop
a8045748 T hal_TimTickIrqHandler
a804576c T hal_TimTickOpen
a8045798 T hal_TimTimersIrqHandler
a80457c0 T hal_TimGetReminderTime
a80457f0 T hal_TimSetExpirationTime
a8045880 T hal_TimWatchDogOpen
a80458b8 T musb_host_packet_rx
a80458e4 T hal_musb_host_connect
a80458f0 T hal_musb_host_disconnect
a80459b0 T musb_host_tx_int
a8045ab0 T usb_host_end0_Interrupt
a8045c8c T musb_host_rx_int
a8045e18 T boot_IspiGetRomedCfg
a8045e24 T boot_IspiGetData
a8045e54 T sxs_vprintf
a8045e6c T hal_DbgGdbHstSendEvent
a8045e8c T hal_GdbBreaks
a8045eac T hal_GdbSendcmd
a8045ec8 T hal_GdbIrqDebug
a8045ecc T hal_Gdb16Step
a8046120 T hal_Gdb32Step
a80462d4 T hal_Gdb16EndStep
a80462fc T hal_Gdb32EndStep
a804631c T hal_GdbPrepare
a804637c T hal_GdbBreakPrint
a80463d8 T hal_GdbLoop
a804671c T hal_GdbException
a8046794 T hal_GdbIrqPage
a8046834 T hal_GdbBreakRaise
a80468a0 T hal_GdbBreakSoftBreakPoint
a80468f4 T hal_GdbBreakBreakPoint
a8046934 T hal_GdbBreakDivBy0
a80469a4 T hal_HstRamClientIrq
a80469a8 T hal_DbgPageProtectGetHitMaster
a80469bc T hal_DbgPageProtectGetHitAddress
a80469d4 T hal_SpiIrqHandler
a80469ec T hal_VocIsClose
a80469fc T hal_VocIrqHandler
a8046a5c T hal_AifIrqHandler
a8046ac4 T hal_TimRtcIrqHandler
a8046b34 T sx_RegisterYourself
a8046b50 T sxr_DeleteComplexTimer
a8046d30 T sxr_DeleteTimer
a8046d48 T sxs_StopTimer
a8046d90 T sxs_StartTimer
a8046ddc T sxr_EnterScSchedule
a8046dec T sxr_ScheduleIdle
a8046e94 T sxr_ExitScSchedule
a8046f14 T sxr_StartTask
a8046fac T sxr_TaskInit
a8046fd4 T sxs_IoInit
a8046ff0 T sxs_fprintf
a8047008 T sxs_Raise
a8047060 T sxs_vprintf_flash
a804710c T sxr_MutexInit
a8047194 T sxr_NewMailBoxWithCondition
a8047210 T sxr_NewSemaphore
a8047288 T sxr_NewMailBox
a80472cc T sxr_SbxInit
a80474b8 T sxr_CheckTask
a80474d8 T sxr_TkSdInit
a8047568 T sxr_StartScheduling
a80475ac T sxr_NewTask
a8047684 T sxr_RmvMsgFromMbx
a8047790 T sxr_InitTimer
a8047888 T gpio_LineinDetectHandler
a80478e8 T gpio_LineinDetectDelay
a804795c T gpio_MutePinInit
a8047984 T gpio_LineinDetectIrqInit
a80479d4 T gpio_initialise
a8047a08 T gpio_config
a8047a34 T gpio_Keyinit
a8047b70 T gpio_key_timeout
a8047b80 T rdabt_antenna_off
a8047bbc T rdabt_antenna_on
a8047be8 T BAL_BTTaskEntry
a8047cac T rdabt_poweronphone_init
a8047cb0 T RDA_bt_Power_Off
a8047cd8 T rda_bt_power_on
a8047d20 T rdabt_poweron_init
a8047d38 T rdabt_get_xcpu_msg
a8047d88 T rdabt_clear_xcpu_busy
a8047d94 T rdabt_wait_btcpu_busy
a8047dcc T rdabt_send_msg_to_bt
a8047e80 T rdabt_Sharemem_Interrupt_Handle
a8047f90 T pmd_TsdTscEnabled
a8047fa0 T pmd_GpadcChannelEnabled
a8047fc4 T pmd_EnableClk4mAvdd3InLpMode
a804802c T pmd_SpiCsNonblockingActivate
a804808c T pmd_OpalCsDeactivate
a80480c0 T pmd_OpalCsBlockingActivate
a8048124 T pmd_OpalSpiWrite
a8048178 T pmd_SetVIO2P8Voltage
a80481c8 T pmd_InitCoreVoltage
a8048230 T pmd_RDAWrite
a8048308 T pmd_SpeakerPaRestoreMode
a80483f0 T pmd_EnableOpalLdo
a804856c T pmd_SetLevel
a804888c T pmd_InitSpeakerPa
a80488c8 T pmd_RegHpDetectSettingSet
a804890c T pmd_OpalSpiRead
a8048c24 T pmd_InitTouchScreen
a8048c84 T pmd_RDARead
a8048ccc T pmd_InitXtal32K
a8048e30 T pmd_RegIrqSettingSet
a8048e78 T pmd_IrqHandler
a8048ecc T pmd_InitRdaPmu
a8049000 T pmd_Open
a80492c0 T uctls_NewDeviceDescriptor
a804931c T uctls_NewConfigDescriptor
a8049354 T uctls_NewInterfaceDescriptor
a804939c T uctls_NewEpDescriptor
a80493e4 T uctls_AddInterface
a8049400 T uctls_AllocateEndPoint
a804946c T uctls_ChargerStatus
a8049504 T uctls_Open
a80495a4 W Mcd_UsbHostDeInit
a80495a8 W MMC_SCOReceiveData
a80495ac W MMC_SCOGetRXBuffer
a80495b0 W aud_EnableEarpieceSetting
a80495b4 W aud_InitEarpieceSetting
a80495b8 W tsd_Debounce
a80495bc T hal_DebugUartIrqHandler
a80495d4 T hal_Uart1IrqHandler
a80495ec T hal_Uart2IrqHandler
a8049604 T hal_SdmmcIrqHandler
a804961c T mem_addMemoryToAddressList
a8049640 T mem_removeMemoryFromAddressList
a8049668 T mem_removeMemoryFromLengthList
a80496ac T mem_splitMemory
a80496d8 T mem_addMemoryToPool
a8049724 T mem_removeMemoryFromPool
a8049794 T mem_mergeMemoryInAddressList
a8049888 T mem_getMemoryFromPool
a80498d0 T mem_addMemoryToLengthList
a8049938 T COS_MemIint
a80499dc T mem_getMemoryFromLengthList
a8049b94 T COS_Malloc_NoCache
a8049ba4 T COS_GetSysTaskMbx
a8049bb4 T Cos_GetTaskHandler
a8049bc4 T COS_ExitCriticalSection
a8049bd8 T COS_EnterCriticalSection
a8049c40 T COS_WaitEvent
a8049cb4 T COS_CreateTask
a8049d3c T hasFreeEnv
a8049d90 T COS_SleepByTick
a8049da4 T COS_Sleep
a8049dd4 T COS_HandleExpiredTimers
a8049e54 T COS_KillTimer
a8049eb4 T COS_SetTimer
a8049f9c T COS_Timer_Initialise
a8049fcc T COS_TimerDelivery
a8049fe4 T NVRAMWriteData
a8049ff8 T NVRAMGetData
a804a010 T SUL_StrCopy
a804a024 T SUL_MemSet8
a804a040 T SUL_ZeroMemory32
a804a054 T tgt_GetGPIOCfg
a804a060 T tgt_Open
a804a070 T tgt_GetHalConfig
a804a07c T tgt_GetPmdConfig
a804a088 T tgt_GetBtdConfig
a804a094 T tgt_GetBtMaxDeviceNum
a804a098 T tgt_GetTsdConfig
a804a0a4 T tgt_GetDsmCfg
a804a0b0 T tgt_RegisterAllModules
a804a0d8 T rfd_XcvReadChipId
a804a0f8 T memd_FlashSetLayout
a804a128 T memd_RegisterYourself
a804a12c T memd_FlashRomulatorSetRamMode
a804a130 T DSM_SemInit
a804a148 T DSM_GetUserData
a804a1e4 T DSM_UserDataNeedUpdate
a804a358 T DSM_InitUserData
a804a388 T DSM_CreatUserData
a804a438 T DSM_ReadUserData
a804a63c T DSM_FlashErase
a804a654 T DSM_FlashWrite
a804a66c T DSM_WriteUserData
a804a910 T DSM_DevInit
a804aa90 T RDABT_Remove_Transport
a804aa94 T hal_ConfigFmIo
a804aa9c T hal_ConfigBtIo
a804aaa4 T hal_RegisterYourself
a804aaec T hal_PwmResourceMgmt
a804ab58 T hal_PwlSelLevel
a804ac00 T btd_RegisterYourself
a804ac04 T pmd_RegisterYourself
a804ac08 T __init_array_start
a804ac08 T initcall_init_ext_io
a804ac0c T initcall_init_board
a804ac10 T initcall_init_battery
a804ac14 T initcall_init_link
a804ac18 T initcall_init_ui_lcd
a804ac1c T initcall_init_battery_status
a804ac20 T initcall_init_comm
a804ac24 T initcall_init_bt
a804ac2c T initcall_init_link_reg
a804ac30 T initcall_init_head_tx
a804ac34 T initcall_init_board_after_power_on
a804ac38 T initcall_wakeup_init
a804ac3c T initcall_init_ui_link
a804ac40 T initcall_init_debug
a804ac44 T initcall_init_ui_engine
a804ac48 T initcall_init_prn_engine
a804ac4c T initcall_init_prn_cmd
a804ac50 T initcall_init_ui_feed
a804ac54 T __ctor_list_start
a804ac54 T __init_array_end
a804ac58 T __ctor_list_end
a804ac58 T __reg_index_array_start
a804ac58 T pReg_power_reset
a804ac5c T pReg_power_off
a804ac60 T pReg_reg_value_save
a804ac64 T pReg_reg_restore_default
a804ac68 T pReg_beep
a804ac6c T pReg_LANGUAGE
a804ac70 T pReg_OEM_MANUFACTURE
a804ac74 T pReg_OEM_MODELNAME
a804ac78 T pReg_VERSION
a804ac7c T pReg_CPU_ID32
a804ac80 T pReg_BATTERY_VOLT
a804ac84 T pReg_BATTERY_CAP
a804ac88 T pReg_BATTERY_LEVEL
a804ac8c T pReg_FIFO_TX_DEBUG
a804ac90 T pReg_FIFO_TX_COMM
a804ac94 T pReg_FIFO_RX_COMM
a804ac98 T pReg_OS_INFO_SEND
a804ac9c T pReg_BLUETOOTH_NAME
a804aca0 T pReg_BLUETOOTH_ADDR
a804aca4 T pReg_BLUETOOTH_PASSWORD
a804aca8 T pReg_BT_SUB_STATE
a804acac T pReg_FIFO_RX_PRN
a804acb0 T pReg_AUTOFEED
a804acb4 T pReg_PRINT_DARKNESS
a804acb8 T pReg_PRINT_SPEED
a804acbc T pReg_PRINT_DEBUG
a804acc0 T pReg_LABEL_FEED_LEN
a804acc4 T __reg_index_array_end
a804ace0 r .rodata
a808d270 R __thenan_df
a808d288 R __clz_tab
a808d388 V _ZTV9LcdWithHz
a808d3b0 V _ZTV19LcdOled12832_sh1306
a808d620 V _ZTV11UiLcdString
a808d734 V _ZZN6Beeper4playEvE4FREQ
a808ddf8 V _ZTV14RawSerialRxDma
a808de28 V _ZTV9USBDevice
a808def0 V _ZTV13RawUSBPrinter
a808e00c R sxs_TaskIdleDesc
a808e038 V _ZTV6USBHAL
a808e508 V _ZTV4Fifo
a808e548 V _ZTV13BaseDirHandle
a808e570 V _ZTV9DirHandle
a808e5c0 R gc_halAudDacSRDivCntInteger
a808ec28 R sxs_TraceDesc
a808ee10 R g_tgtSxNbCfg
a808ee34 R g_tgtHalCfg
a808eec0 R g_tgtPmdCfg
a808eff8 R g_tgtDsmCfg
a808f0bc R BoardsetupGpioCfg
a808f228 R g_tgtGPIOCfg
a808f2ac R g_tgtBtdCfg
a808f2bc R g_tgtTsdCfg
a8090000 A _flash_end
a8090000 A _res_data_end
a8090000 A _res_data_flash_start_location
a80fc000 A _user_data_end
a80fc000 D _user_data_start
a80fe000 A _calib_end
a80fe000 D _calib_start
a80ff000 A _factory_end
a80ff000 D _factory_start
